
out.elf:     file format elf32-tradlittlemips


Disassembly of section .config_BFC02FF0:

bfc02ff0 <__config_BFC02FF0>:
bfc02ff0:	ff ff fe fa                                         ....

Disassembly of section .config_BFC02FF4:

bfc02ff4 <__config_BFC02FF4>:
bfc02ff4:	d9 79 f8 ff                                         .y..

Disassembly of section .config_BFC02FF8:

bfc02ff8 <__config_BFC02FF8>:
bfc02ff8:	db ce 6c ff                                         ..l.

Disassembly of section .config_BFC02FFC:

bfc02ffc <__config_BFC02FFC>:
bfc02ffc:	ff ff ff 7e                                         ...~

Disassembly of section .reset:

bd001970 <_reset>:
bd001970:	0f40065e 	jal	bd001978 <_startup>
bd001974:	00000000 	nop

bd001978 <_startup>:
bd001978:	401a6000 	mfc0	k0,c0_status
bd00197c:	7f5a04c0 	ext	k0,k0,0x13,0x1
bd001980:	13400005 	beqz	k0,bd001998 <_no_nmi>
bd001984:	00000000 	nop
bd001988:	3c1a9d01 	lui	k0,0x9d01
bd00198c:	275a9e5c 	addiu	k0,k0,-24996
bd001990:	03400008 	jr	k0
bd001994:	00000000 	nop

bd001998 <_no_nmi>:
bd001998:	3c1da002 	lui	sp,0xa002
bd00199c:	27bdfff8 	addiu	sp,sp,-8
bd0019a0:	3c1ca000 	lui	gp,0xa000
bd0019a4:	279c7ff0 	addiu	gp,gp,32752
bd0019a8:	40096002 	mfc0	t1,c0_srsctl
bd0019ac:	01205820 	add	t3,t1,zero
bd0019b0:	7d2a1e80 	ext	t2,t1,0x1a,0x4
bd0019b4:	7d494984 	ins	t1,t2,0x6,0x4
bd0019b8:	40896002 	mtc0	t1,c0_srsctl
bd0019bc:	000000c0 	ehb
bd0019c0:	41dce000 	wrpgpr	gp,gp
bd0019c4:	408b6002 	mtc0	t3,c0_srsctl
bd0019c8:	000000c0 	ehb
bd0019cc:	3c089d01 	lui	t0,0x9d01
bd0019d0:	25089fa8 	addiu	t0,t0,-24664
bd0019d4:	0100f809 	jalr	t0
bd0019d8:	00000000 	nop
bd0019dc:	3c08a000 	lui	t0,0xa000
bd0019e0:	25080004 	addiu	t0,t0,4
bd0019e4:	3c09a000 	lui	t1,0xa000
bd0019e8:	252900e8 	addiu	t1,t1,232
bd0019ec:	10000006 	b	bd001a08 <_bss_check>
bd0019f0:	00000000 	nop

bd0019f4 <_bss_init>:
bd0019f4:	ad000000 	sw	zero,0(t0)
bd0019f8:	ad000004 	sw	zero,4(t0)
bd0019fc:	ad000008 	sw	zero,8(t0)
bd001a00:	ad00000c 	sw	zero,12(t0)
bd001a04:	25080010 	addiu	t0,t0,16

bd001a08 <_bss_check>:
bd001a08:	0109082b 	sltu	at,t0,t1
bd001a0c:	1420fff9 	bnez	at,bd0019f4 <_bss_init>
bd001a10:	00000000 	nop

bd001a14 <_dinit_init>:
bd001a14:	3c089d01 	lui	t0,0x9d01
bd001a18:	25088618 	addiu	t0,t0,-31208
bd001a1c:	8d090000 	lw	t1,0(t0)
bd001a20:	11200018 	beqz	t1,bd001a84 <_dinit_end+0x18>
bd001a24:	25080004 	addiu	t0,t0,4
bd001a28:	8d0a0000 	lw	t2,0(t0)
bd001a2c:	25080004 	addiu	t0,t0,4
bd001a30:	8d0b0000 	lw	t3,0(t0)
bd001a34:	11600009 	beqz	t3,bd001a5c <_dinit_clear>
bd001a38:	25080004 	addiu	t0,t0,4

bd001a3c <_dinit_copy>:
bd001a3c:	910c0000 	lbu	t4,0(t0)
bd001a40:	254affff 	addiu	t2,t2,-1
bd001a44:	25080001 	addiu	t0,t0,1
bd001a48:	a12c0000 	sb	t4,0(t1)
bd001a4c:	1540fffb 	bnez	t2,bd001a3c <_dinit_copy>
bd001a50:	25290001 	addiu	t1,t1,1
bd001a54:	10000005 	b	bd001a6c <_dinit_end>
bd001a58:	00000000 	nop

bd001a5c <_dinit_clear>:
bd001a5c:	a1200000 	sb	zero,0(t1)
bd001a60:	254affff 	addiu	t2,t2,-1
bd001a64:	1540fffd 	bnez	t2,bd001a5c <_dinit_clear>
bd001a68:	25290001 	addiu	t1,t1,1

bd001a6c <_dinit_end>:
bd001a6c:	25080003 	addiu	t0,t0,3
bd001a70:	240afffc 	li	t2,-4
bd001a74:	01484024 	and	t0,t2,t0
bd001a78:	8d090000 	lw	t1,0(t0)
bd001a7c:	1520ffe7 	bnez	t1,bd001a1c <_dinit_init+0x8>
bd001a80:	00000000 	nop
bd001a84:	3c090000 	lui	t1,0x0
bd001a88:	25290000 	addiu	t1,t1,0
bd001a8c:	11200010 	beqz	t1,bd001ad0 <_ramfunc_done>
bd001a90:	00000000 	nop
bd001a94:	3c090002 	lui	t1,0x2
bd001a98:	25290000 	addiu	t1,t1,0
bd001a9c:	3c0abf88 	lui	t2,0xbf88
bd001aa0:	254a2010 	addiu	t2,t2,8208
bd001aa4:	ad490000 	sw	t1,0(t2)
bd001aa8:	3c090002 	lui	t1,0x2
bd001aac:	25290000 	addiu	t1,t1,0
bd001ab0:	3c0abf88 	lui	t2,0xbf88
bd001ab4:	254a2020 	addiu	t2,t2,8224
bd001ab8:	ad490000 	sw	t1,0(t2)
bd001abc:	3c090002 	lui	t1,0x2
bd001ac0:	25290000 	addiu	t1,t1,0
bd001ac4:	3c0abf88 	lui	t2,0xbf88
bd001ac8:	254a2030 	addiu	t2,t2,8240
bd001acc:	ad490000 	sw	t1,0(t2)

bd001ad0 <_ramfunc_done>:
bd001ad0:	40804800 	mtc0	zero,c0_count
bd001ad4:	240affff 	li	t2,-1
bd001ad8:	408a5800 	mtc0	t2,c0_compare
bd001adc:	3c099d00 	lui	t1,0x9d00
bd001ae0:	25290000 	addiu	t1,t1,0
bd001ae4:	40897801 	mtc0	t1,c0_ebase
bd001ae8:	3c090000 	lui	t1,0x0
bd001aec:	25290001 	addiu	t1,t1,1
bd001af0:	240a0000 	li	t2,0
bd001af4:	7d2a4944 	ins	t2,t1,0x5,0x5
bd001af8:	408a6001 	mtc0	t2,c0_intctl
bd001afc:	3c090080 	lui	t1,0x80
bd001b00:	40896800 	mtc0	t1,c0_cause
bd001b04:	40088000 	mfc0	t0,c0_config
bd001b08:	7d090580 	ext	t1,t0,0x16,0x1
bd001b0c:	00094c40 	sll	t1,t1,0x11
bd001b10:	40086000 	mfc0	t0,c0_status
bd001b14:	3c010058 	lui	at,0x58
bd001b18:	01014024 	and	t0,t0,at
bd001b1c:	01284025 	or	t0,t1,t0
bd001b20:	40886000 	mtc0	t0,c0_status
bd001b24:	000000c0 	ehb
bd001b28:	3c089d01 	lui	t0,0x9d01
bd001b2c:	25089fb0 	addiu	t0,t0,-24656
bd001b30:	0100f809 	jalr	t0
bd001b34:	00000000 	nop
bd001b38:	40086000 	mfc0	t0,c0_status
bd001b3c:	3c01ffbf 	lui	at,0xffbf
bd001b40:	3421ffff 	ori	at,at,0xffff
bd001b44:	01014024 	and	t0,t0,at
bd001b48:	40886000 	mtc0	t0,c0_status
bd001b4c:	30840000 	andi	a0,a0,0x0
bd001b50:	30a50000 	andi	a1,a1,0x0
bd001b54:	3c089d01 	lui	t0,0x9d01
bd001b58:	25089a8c 	addiu	t0,t0,-25972
bd001b5c:	01000008 	jr	t0
bd001b60:	00000000 	nop

Disassembly of section .bev_excpt:

bd001cf0 <_bev_exception>:
bd001cf0:	3c1a9d01 	lui	k0,0x9d01
bd001cf4:	275a9b80 	addiu	k0,k0,-25728
bd001cf8:	03400008 	jr	k0
bd001cfc:	00000000 	nop

Disassembly of section .app_excpt:

9d000180 <_gen_exception>:
9d000180:	3c1a9d01 	lui	k0,0x9d01
9d000184:	275a90b0 	addiu	k0,k0,-28496
9d000188:	03400008 	jr	k0
9d00018c:	00000000 	nop

Disassembly of section .vector_0:

9d000200 <__vector_dispatch_0>:
9d000200:	0b402704 	j	9d009c10 <.LFE0>
9d000204:	00000000 	nop

Disassembly of section .vector_1:

9d000220 <__vector_dispatch_1>:
9d000220:	0b402704 	j	9d009c10 <.LFE0>
9d000224:	00000000 	nop

Disassembly of section .vector_2:

9d000240 <__vector_dispatch_2>:
9d000240:	0b402704 	j	9d009c10 <.LFE0>
9d000244:	00000000 	nop

Disassembly of section .vector_3:

9d000260 <__vector_dispatch_3>:
9d000260:	0b402704 	j	9d009c10 <.LFE0>
9d000264:	00000000 	nop

Disassembly of section .vector_4:

9d000280 <__vector_dispatch_4>:
9d000280:	0b402704 	j	9d009c10 <.LFE0>
9d000284:	00000000 	nop

Disassembly of section .vector_5:

9d0002a0 <__vector_dispatch_5>:
9d0002a0:	0b402704 	j	9d009c10 <.LFE0>
9d0002a4:	00000000 	nop

Disassembly of section .vector_6:

9d0002c0 <__vector_dispatch_6>:
9d0002c0:	0b402704 	j	9d009c10 <.LFE0>
9d0002c4:	00000000 	nop

Disassembly of section .vector_7:

9d0002e0 <__vector_dispatch_7>:
9d0002e0:	0b402704 	j	9d009c10 <.LFE0>
9d0002e4:	00000000 	nop

Disassembly of section .vector_8:

9d000300 <__vector_dispatch_8>:
9d000300:	0b4008b2 	j	9d0022c8 <Control_5k>
9d000304:	00000000 	nop

Disassembly of section .vector_9:

9d000320 <__vector_dispatch_9>:
9d000320:	0b402704 	j	9d009c10 <.LFE0>
9d000324:	00000000 	nop

Disassembly of section .vector_10:

9d000340 <__vector_dispatch_10>:
9d000340:	0b402704 	j	9d009c10 <.LFE0>
9d000344:	00000000 	nop

Disassembly of section .vector_11:

9d000360 <__vector_dispatch_11>:
9d000360:	0b402704 	j	9d009c10 <.LFE0>
9d000364:	00000000 	nop

Disassembly of section .vector_12:

9d000380 <__vector_dispatch_12>:
9d000380:	0b402704 	j	9d009c10 <.LFE0>
9d000384:	00000000 	nop

Disassembly of section .vector_13:

9d0003a0 <__vector_dispatch_13>:
9d0003a0:	0b402704 	j	9d009c10 <.LFE0>
9d0003a4:	00000000 	nop

Disassembly of section .vector_14:

9d0003c0 <__vector_dispatch_14>:
9d0003c0:	0b402704 	j	9d009c10 <.LFE0>
9d0003c4:	00000000 	nop

Disassembly of section .vector_15:

9d0003e0 <__vector_dispatch_15>:
9d0003e0:	0b402704 	j	9d009c10 <.LFE0>
9d0003e4:	00000000 	nop

Disassembly of section .vector_16:

9d000400 <__vector_dispatch_16>:
9d000400:	0b400780 	j	9d001e00 <Control_200>
9d000404:	00000000 	nop

Disassembly of section .vector_17:

9d000420 <__vector_dispatch_17>:
9d000420:	0b402704 	j	9d009c10 <.LFE0>
9d000424:	00000000 	nop

Disassembly of section .vector_18:

9d000440 <__vector_dispatch_18>:
9d000440:	0b402704 	j	9d009c10 <.LFE0>
9d000444:	00000000 	nop

Disassembly of section .vector_19:

9d000460 <__vector_dispatch_19>:
9d000460:	0b402704 	j	9d009c10 <.LFE0>
9d000464:	00000000 	nop

Disassembly of section .vector_20:

9d000480 <__vector_dispatch_20>:
9d000480:	0b402704 	j	9d009c10 <.LFE0>
9d000484:	00000000 	nop

Disassembly of section .vector_21:

9d0004a0 <__vector_dispatch_21>:
9d0004a0:	0b402704 	j	9d009c10 <.LFE0>
9d0004a4:	00000000 	nop

Disassembly of section .vector_22:

9d0004c0 <__vector_dispatch_22>:
9d0004c0:	0b402704 	j	9d009c10 <.LFE0>
9d0004c4:	00000000 	nop

Disassembly of section .vector_23:

9d0004e0 <__vector_dispatch_23>:
9d0004e0:	0b402704 	j	9d009c10 <.LFE0>
9d0004e4:	00000000 	nop

Disassembly of section .vector_24:

9d000500 <__vector_dispatch_24>:
9d000500:	0b402704 	j	9d009c10 <.LFE0>
9d000504:	00000000 	nop

Disassembly of section .vector_25:

9d000520 <__vector_dispatch_25>:
9d000520:	0b402704 	j	9d009c10 <.LFE0>
9d000524:	00000000 	nop

Disassembly of section .vector_26:

9d000540 <__vector_dispatch_26>:
9d000540:	0b402704 	j	9d009c10 <.LFE0>
9d000544:	00000000 	nop

Disassembly of section .vector_27:

9d000560 <__vector_dispatch_27>:
9d000560:	0b402704 	j	9d009c10 <.LFE0>
9d000564:	00000000 	nop

Disassembly of section .vector_28:

9d000580 <__vector_dispatch_28>:
9d000580:	0b402704 	j	9d009c10 <.LFE0>
9d000584:	00000000 	nop

Disassembly of section .vector_29:

9d0005a0 <__vector_dispatch_29>:
9d0005a0:	0b402704 	j	9d009c10 <.LFE0>
9d0005a4:	00000000 	nop

Disassembly of section .vector_30:

9d0005c0 <__vector_dispatch_30>:
9d0005c0:	0b402704 	j	9d009c10 <.LFE0>
9d0005c4:	00000000 	nop

Disassembly of section .vector_31:

9d0005e0 <__vector_dispatch_31>:
9d0005e0:	0b402704 	j	9d009c10 <.LFE0>
9d0005e4:	00000000 	nop

Disassembly of section .vector_32:

9d000600 <__vector_dispatch_32>:
9d000600:	0b402704 	j	9d009c10 <.LFE0>
9d000604:	00000000 	nop

Disassembly of section .vector_33:

9d000620 <__vector_dispatch_33>:
9d000620:	0b402704 	j	9d009c10 <.LFE0>
9d000624:	00000000 	nop

Disassembly of section .vector_34:

9d000640 <__vector_dispatch_34>:
9d000640:	0b402704 	j	9d009c10 <.LFE0>
9d000644:	00000000 	nop

Disassembly of section .vector_35:

9d000660 <__vector_dispatch_35>:
9d000660:	0b402704 	j	9d009c10 <.LFE0>
9d000664:	00000000 	nop

Disassembly of section .vector_36:

9d000680 <__vector_dispatch_36>:
9d000680:	0b402704 	j	9d009c10 <.LFE0>
9d000684:	00000000 	nop

Disassembly of section .vector_37:

9d0006a0 <__vector_dispatch_37>:
9d0006a0:	0b402704 	j	9d009c10 <.LFE0>
9d0006a4:	00000000 	nop

Disassembly of section .vector_38:

9d0006c0 <__vector_dispatch_38>:
9d0006c0:	0b402704 	j	9d009c10 <.LFE0>
9d0006c4:	00000000 	nop

Disassembly of section .vector_39:

9d0006e0 <__vector_dispatch_39>:
9d0006e0:	0b402704 	j	9d009c10 <.LFE0>
9d0006e4:	00000000 	nop

Disassembly of section .vector_40:

9d000700 <__vector_dispatch_40>:
9d000700:	0b402704 	j	9d009c10 <.LFE0>
9d000704:	00000000 	nop

Disassembly of section .vector_41:

9d000720 <__vector_dispatch_41>:
9d000720:	0b402704 	j	9d009c10 <.LFE0>
9d000724:	00000000 	nop

Disassembly of section .vector_42:

9d000740 <__vector_dispatch_42>:
9d000740:	0b402704 	j	9d009c10 <.LFE0>
9d000744:	00000000 	nop

Disassembly of section .vector_43:

9d000760 <__vector_dispatch_43>:
9d000760:	0b402704 	j	9d009c10 <.LFE0>
9d000764:	00000000 	nop

Disassembly of section .vector_44:

9d000780 <__vector_dispatch_44>:
9d000780:	0b402704 	j	9d009c10 <.LFE0>
9d000784:	00000000 	nop

Disassembly of section .vector_45:

9d0007a0 <__vector_dispatch_45>:
9d0007a0:	0b402704 	j	9d009c10 <.LFE0>
9d0007a4:	00000000 	nop

Disassembly of section .vector_46:

9d0007c0 <__vector_dispatch_46>:
9d0007c0:	0b402704 	j	9d009c10 <.LFE0>
9d0007c4:	00000000 	nop

Disassembly of section .vector_47:

9d0007e0 <__vector_dispatch_47>:
9d0007e0:	0b402704 	j	9d009c10 <.LFE0>
9d0007e4:	00000000 	nop

Disassembly of section .vector_48:

9d000800 <__vector_dispatch_48>:
9d000800:	0b402704 	j	9d009c10 <.LFE0>
9d000804:	00000000 	nop

Disassembly of section .vector_49:

9d000820 <__vector_dispatch_49>:
9d000820:	0b402704 	j	9d009c10 <.LFE0>
9d000824:	00000000 	nop

Disassembly of section .vector_50:

9d000840 <__vector_dispatch_50>:
9d000840:	0b402704 	j	9d009c10 <.LFE0>
9d000844:	00000000 	nop

Disassembly of section .vector_51:

9d000860 <__vector_dispatch_51>:
9d000860:	0b402704 	j	9d009c10 <.LFE0>
9d000864:	00000000 	nop

Disassembly of section ._debug_exception:

bfc00480 <__DbgExecReturn>:
bfc00480:	409bf800 	mtc0	k1,c0_desave
bfc00484:	000000c0 	ehb
bfc00488:	3c1b9d01 	lui	k1,0x9d01
bfc0048c:	277b9ca0 	addiu	k1,k1,-25440
bfc00490:	13600002 	beqz	k1,bfc0049c <__DbgExecReturn+0x1c>
bfc00494:	00000000 	nop
bfc00498:	409bc000 	mtc0	k1,c0_depc
bfc0049c:	401bf800 	mfc0	k1,c0_desave
bfc004a0:	000000c0 	ehb
bfc004a4:	4200001f 	deret
bfc004a8:	00000000 	nop

Disassembly of section .text:

9d001e00 <Control_200>:
static volatile int ADCarray[PLOTPTS];
static volatile int REFarray[PLOTPTS];
static volatile int StoringData = 0;
static volatile int eint = 0;

void __ISR(_TIMER_4_VECTOR, IPL6SOFT) Control_200(void) {
9d001e00:	415de800 	rdpgpr	sp,sp
9d001e04:	401a7000 	mfc0	k0,c0_epc
9d001e08:	401b6000 	mfc0	k1,c0_status
9d001e0c:	27bdff80 	addiu	sp,sp,-128
9d001e10:	afba007c 	sw	k0,124(sp)
9d001e14:	401a6002 	mfc0	k0,c0_srsctl
9d001e18:	afbb0078 	sw	k1,120(sp)
9d001e1c:	afba0074 	sw	k0,116(sp)
9d001e20:	7c1b7844 	ins	k1,zero,0x1,0xf
9d001e24:	377b1800 	ori	k1,k1,0x1800
9d001e28:	409b6000 	mtc0	k1,c0_status
9d001e2c:	afbf0064 	sw	ra,100(sp)
9d001e30:	afb90060 	sw	t9,96(sp)
9d001e34:	afb8005c 	sw	t8,92(sp)
9d001e38:	afb20058 	sw	s2,88(sp)
9d001e3c:	afb10054 	sw	s1,84(sp)
9d001e40:	afb00050 	sw	s0,80(sp)
9d001e44:	afaf004c 	sw	t7,76(sp)
9d001e48:	afae0048 	sw	t6,72(sp)
9d001e4c:	afad0044 	sw	t5,68(sp)
9d001e50:	afac0040 	sw	t4,64(sp)
9d001e54:	afab003c 	sw	t3,60(sp)
9d001e58:	afaa0038 	sw	t2,56(sp)
9d001e5c:	afa90034 	sw	t1,52(sp)
9d001e60:	afa80030 	sw	t0,48(sp)
9d001e64:	afa7002c 	sw	a3,44(sp)
9d001e68:	afa60028 	sw	a2,40(sp)
9d001e6c:	afa50024 	sw	a1,36(sp)
9d001e70:	afa40020 	sw	a0,32(sp)
9d001e74:	afa3001c 	sw	v1,28(sp)
9d001e78:	afa20018 	sw	v0,24(sp)
9d001e7c:	afa10014 	sw	at,20(sp)
9d001e80:	00001012 	mflo	v0
9d001e84:	afa2006c 	sw	v0,108(sp)
9d001e88:	00001810 	mfhi	v1
9d001e8c:	afa30068 	sw	v1,104(sp)
  //else{
  //	LATDbits.LATD9 = 0;
  //}

  //HOLD
  if(get_mode()==3) {
9d001e90:	0f402791 	jal	9d009e44 <get_mode>
9d001e94:	00000000 	nop

9d001e98 <.LVL0>:
9d001e98:	24030003 	li	v1,3
9d001e9c:	1443005f 	bne	v0,v1,9d00201c <.LVL25>
9d001ea0:	00000000 	nop
	  static float P_Ki = 0;
	  static float P_Kd = 0;
	  static float angle = 0;
	  static int P_count = 0;

	  P_Kp = get_Pkp();
9d001ea4:	0f4021fc 	jal	9d0087f0 <get_Pkp>
9d001ea8:	00000000 	nop

9d001eac <.LVL1>:
	  P_Ki = get_Pki();
9d001eac:	0f4021ff 	jal	9d0087fc <get_Pki>
9d001eb0:	af828038 	sw	v0,-32712(gp)

9d001eb4 <.LVL2>:
	  P_Kd = get_Pkd();
9d001eb4:	0f402202 	jal	9d008808 <get_Pkd>
9d001eb8:	af82803c 	sw	v0,-32708(gp)

9d001ebc <.LVL3>:
	  P_eint = get_Peint();
9d001ebc:	0f402205 	jal	9d008814 <get_Peint>
9d001ec0:	af828040 	sw	v0,-32704(gp)

9d001ec4 <.LVL4>:

	  P_count = encoder_counts();
9d001ec4:	0f4022c2 	jal	9d008b08 <encoder_counts>
9d001ec8:	af828044 	sw	v0,-32700(gp)

9d001ecc <.LVL5>:
	  P_count = encoder_counts();
9d001ecc:	0f4022c2 	jal	9d008b08 <encoder_counts>
9d001ed0:	00000000 	nop

9d001ed4 <.LVL6>:
	  angle = (float) 360*(P_count-CENTER)/(448*4);
9d001ed4:	0f40265d 	jal	9d009974 <__floatsisf>
9d001ed8:	24448000 	addiu	a0,v0,-32768
9d001edc:	00402021 	move	a0,v0
9d001ee0:	3c029d01 	lui	v0,0x9d01
9d001ee4:	0f401edd 	jal	9d007b74 <.LFE4>
9d001ee8:	8c459a64 	lw	a1,-26012(v0)
9d001eec:	00402021 	move	a0,v0
9d001ef0:	3c029d01 	lui	v0,0x9d01
9d001ef4:	0f401cd4 	jal	9d007350 <__divsf3>
9d001ef8:	8c459a68 	lw	a1,-26008(v0)

	  P_ref = get_angle();
9d001efc:	0f40221a 	jal	9d008868 <get_angle>
9d001f00:	af82804c 	sw	v0,-32692(gp)

9d001f04 <.LVL10>:
9d001f04:	0f40265d 	jal	9d009974 <__floatsisf>
9d001f08:	00402021 	move	a0,v0

	  P_e = P_ref - angle;
9d001f0c:	00402021 	move	a0,v0
9d001f10:	0f401c36 	jal	9d0070d8 <__subsf3>
9d001f14:	8f85804c 	lw	a1,-32692(gp)
9d001f18:	00408021 	move	s0,v0
9d001f1c:	af828054 	sw	v0,-32684(gp)

	  P_eint = P_eint + P_e;
9d001f20:	00402021 	move	a0,v0
9d001f24:	0f401c38 	jal	9d0070e0 <__addsf3>
9d001f28:	8f858044 	lw	a1,-32700(gp)
9d001f2c:	00408821 	move	s1,v0
9d001f30:	af828044 	sw	v0,-32700(gp)

	  P_edot = (P_e - P_eprev)/0.005;

	  P_u = P_Kp*P_e + P_Ki*P_eint + P_Kd*P_edot;
9d001f34:	02002021 	move	a0,s0
9d001f38:	0f401edd 	jal	9d007b74 <.LFE4>
9d001f3c:	8f858038 	lw	a1,-32712(gp)
9d001f40:	00409021 	move	s2,v0
9d001f44:	02202021 	move	a0,s1
9d001f48:	0f401edd 	jal	9d007b74 <.LFE4>
9d001f4c:	8f85803c 	lw	a1,-32708(gp)
9d001f50:	02402021 	move	a0,s2
9d001f54:	0f401c38 	jal	9d0070e0 <__addsf3>
9d001f58:	00402821 	move	a1,v0
9d001f5c:	00409021 	move	s2,v0

	  P_e = P_ref - angle;

	  P_eint = P_eint + P_e;

	  P_edot = (P_e - P_eprev)/0.005;
9d001f60:	02002021 	move	a0,s0
9d001f64:	0f401c36 	jal	9d0070d8 <__subsf3>
9d001f68:	8f858058 	lw	a1,-32680(gp)
9d001f6c:	00402021 	move	a0,v0
9d001f70:	3c029d01 	lui	v0,0x9d01
9d001f74:	0f401cd4 	jal	9d007350 <__divsf3>
9d001f78:	8c459a6c 	lw	a1,-26004(v0)

	  P_u = P_Kp*P_e + P_Ki*P_eint + P_Kd*P_edot;
9d001f7c:	00402021 	move	a0,v0
9d001f80:	0f401edd 	jal	9d007b74 <.LFE4>
9d001f84:	8f858040 	lw	a1,-32704(gp)
9d001f88:	02402021 	move	a0,s2
9d001f8c:	0f401c38 	jal	9d0070e0 <__addsf3>
9d001f90:	00402821 	move	a1,v0
9d001f94:	00409021 	move	s2,v0

	  if(P_u > 600) {
9d001f98:	3c029d01 	lui	v0,0x9d01
9d001f9c:	8c449a70 	lw	a0,-26000(v0)
9d001fa0:	0f40253f 	jal	9d0094fc <.LFE0>
9d001fa4:	02402821 	move	a1,s2
9d001fa8:	04410005 	bgez	v0,9d001fc0 <.LVL10+0xbc>
9d001fac:	02402021 	move	a0,s2
		P_u = 600;
9d001fb0:	3c029d01 	lui	v0,0x9d01
9d001fb4:	8c429a70 	lw	v0,-26000(v0)
9d001fb8:	0b4007f9 	j	9d001fe4 <.LVL10+0xe0>
9d001fbc:	af828060 	sw	v0,-32672(gp)
	  }
	  else if(P_u < -600) {
9d001fc0:	3c029d01 	lui	v0,0x9d01
9d001fc4:	0f40253f 	jal	9d0094fc <.LFE0>
9d001fc8:	8c459a74 	lw	a1,-25996(v0)
9d001fcc:	04400003 	bltz	v0,9d001fdc <.LVL10+0xd8>
9d001fd0:	3c029d01 	lui	v0,0x9d01

	  P_eint = P_eint + P_e;

	  P_edot = (P_e - P_eprev)/0.005;

	  P_u = P_Kp*P_e + P_Ki*P_eint + P_Kd*P_edot;
9d001fd4:	0b4007f9 	j	9d001fe4 <.LVL10+0xe0>
9d001fd8:	af928060 	sw	s2,-32672(gp)

	  if(P_u > 600) {
		P_u = 600;
	  }
	  else if(P_u < -600) {
		P_u = -600;
9d001fdc:	8c429a74 	lw	v0,-25996(v0)
9d001fe0:	af828060 	sw	v0,-32672(gp)
	  }

	  P_eprev = P_e;
9d001fe4:	af908058 	sw	s0,-32680(gp)

	  set_Peint(P_eint);
9d001fe8:	0f402208 	jal	9d008820 <set_Peint>
9d001fec:	02202021 	move	a0,s1

9d001ff0 <.LVL23>:

	  if(P_e > 0) {
9d001ff0:	00002021 	move	a0,zero
9d001ff4:	0f40253f 	jal	9d0094fc <.LFE0>
9d001ff8:	8f858054 	lw	a1,-32684(gp)
9d001ffc:	04410004 	bgez	v0,9d002010 <.LVL23+0x20>
9d002000:	24020001 	li	v0,1
	  	dir = 0;
9d002004:	af808028 	sw	zero,-32728(gp)
9d002008:	0b400805 	j	9d002014 <.LVL23+0x24>
9d00200c:	00000000 	nop
	  }
	  else {
	  	dir = 1;
9d002010:	af828028 	sw	v0,-32728(gp)
	  }

	  set_Iref(P_u);
9d002014:	0f401fad 	jal	9d007eb4 <set_Iref>
9d002018:	8f848060 	lw	a0,-32672(gp)

9d00201c <.LVL25>:

  }
	 
  //TRACK
  if(get_mode()==4) {
9d00201c:	0f402791 	jal	9d009e44 <get_mode>
9d002020:	00000000 	nop

9d002024 <.LVL26>:
9d002024:	24030004 	li	v1,4
9d002028:	14430080 	bne	v0,v1,9d00222c <.LVL54+0xc>
9d00202c:	3c02bf88 	lui	v0,0xbf88
	  static int P_count = 0;

	  static int index = 0;

	  
	  set_angle(Trajectory[index]);
9d002030:	8f838064 	lw	v1,-32668(gp)
9d002034:	00031880 	sll	v1,v1,0x2
9d002038:	3c02a000 	lui	v0,0xa000
9d00203c:	244200e8 	addiu	v0,v0,232
9d002040:	00621021 	addu	v0,v1,v0
9d002044:	8c440000 	lw	a0,0(v0)
9d002048:	0f4025af 	jal	9d0096bc <__fixsfsi>
9d00204c:	00000000 	nop
9d002050:	0f402211 	jal	9d008844 <set_angle>
9d002054:	00402021 	move	a0,v0

9d002058 <.LVL28>:

	  P_Kp = get_Pkp();
9d002058:	0f4021fc 	jal	9d0087f0 <get_Pkp>
9d00205c:	00000000 	nop

9d002060 <.LVL29>:
	  P_Ki = get_Pki();
9d002060:	0f4021ff 	jal	9d0087fc <get_Pki>
9d002064:	af828068 	sw	v0,-32664(gp)

9d002068 <.LVL30>:
	  P_Kd = get_Pkd();
9d002068:	0f402202 	jal	9d008808 <get_Pkd>
9d00206c:	af82806c 	sw	v0,-32660(gp)

9d002070 <.LVL31>:
	  P_eint = get_Peint();
9d002070:	0f402205 	jal	9d008814 <get_Peint>
9d002074:	af828070 	sw	v0,-32656(gp)

9d002078 <.LVL32>:

	  P_count = encoder_counts();
9d002078:	0f4022c2 	jal	9d008b08 <encoder_counts>
9d00207c:	af828074 	sw	v0,-32652(gp)

9d002080 <.LVL33>:
	  P_count = encoder_counts();
9d002080:	0f4022c2 	jal	9d008b08 <encoder_counts>
9d002084:	00000000 	nop

9d002088 <.LVL34>:
	  angle = (float) 360*(P_count-CENTER)/(448*4);
9d002088:	0f40265d 	jal	9d009974 <__floatsisf>
9d00208c:	24448000 	addiu	a0,v0,-32768
9d002090:	00402021 	move	a0,v0
9d002094:	3c029d01 	lui	v0,0x9d01
9d002098:	0f401edd 	jal	9d007b74 <.LFE4>
9d00209c:	8c459a64 	lw	a1,-26012(v0)
9d0020a0:	00402021 	move	a0,v0
9d0020a4:	3c029d01 	lui	v0,0x9d01
9d0020a8:	0f401cd4 	jal	9d007350 <__divsf3>
9d0020ac:	8c459a68 	lw	a1,-26008(v0)
	  P_ref = get_angle();
9d0020b0:	0f40221a 	jal	9d008868 <get_angle>
9d0020b4:	af82807c 	sw	v0,-32644(gp)

9d0020b8 <.LVL38>:
9d0020b8:	0f40265d 	jal	9d009974 <__floatsisf>
9d0020bc:	00402021 	move	a0,v0
	  P_e = P_ref - angle;
9d0020c0:	00402021 	move	a0,v0
9d0020c4:	0f401c36 	jal	9d0070d8 <__subsf3>
9d0020c8:	8f85807c 	lw	a1,-32644(gp)
9d0020cc:	00408021 	move	s0,v0
9d0020d0:	af828084 	sw	v0,-32636(gp)
	  P_eint = P_eint + P_e;
9d0020d4:	00402021 	move	a0,v0
9d0020d8:	0f401c38 	jal	9d0070e0 <__addsf3>
9d0020dc:	8f858074 	lw	a1,-32652(gp)
9d0020e0:	00408821 	move	s1,v0
9d0020e4:	af828074 	sw	v0,-32652(gp)
	  P_edot = (P_e - P_eprev)/0.005;
	  P_u = P_Kp*P_e + P_Ki*P_eint + P_Kd*P_edot;
9d0020e8:	02002021 	move	a0,s0
9d0020ec:	0f401edd 	jal	9d007b74 <.LFE4>
9d0020f0:	8f858068 	lw	a1,-32664(gp)
9d0020f4:	00409021 	move	s2,v0
9d0020f8:	02202021 	move	a0,s1
9d0020fc:	0f401edd 	jal	9d007b74 <.LFE4>
9d002100:	8f85806c 	lw	a1,-32660(gp)
9d002104:	02402021 	move	a0,s2
9d002108:	0f401c38 	jal	9d0070e0 <__addsf3>
9d00210c:	00402821 	move	a1,v0
9d002110:	00409021 	move	s2,v0
	  P_count = encoder_counts();
	  angle = (float) 360*(P_count-CENTER)/(448*4);
	  P_ref = get_angle();
	  P_e = P_ref - angle;
	  P_eint = P_eint + P_e;
	  P_edot = (P_e - P_eprev)/0.005;
9d002114:	02002021 	move	a0,s0
9d002118:	0f401c36 	jal	9d0070d8 <__subsf3>
9d00211c:	8f858088 	lw	a1,-32632(gp)
9d002120:	00402021 	move	a0,v0
9d002124:	3c029d01 	lui	v0,0x9d01
9d002128:	0f401cd4 	jal	9d007350 <__divsf3>
9d00212c:	8c459a6c 	lw	a1,-26004(v0)
	  P_u = P_Kp*P_e + P_Ki*P_eint + P_Kd*P_edot;
9d002130:	00402021 	move	a0,v0
9d002134:	0f401edd 	jal	9d007b74 <.LFE4>
9d002138:	8f858070 	lw	a1,-32656(gp)
9d00213c:	02402021 	move	a0,s2
9d002140:	0f401c38 	jal	9d0070e0 <__addsf3>
9d002144:	00402821 	move	a1,v0
9d002148:	00409021 	move	s2,v0

	  if(P_u > 600) {
9d00214c:	3c029d01 	lui	v0,0x9d01
9d002150:	8c449a70 	lw	a0,-26000(v0)
9d002154:	0f40253f 	jal	9d0094fc <.LFE0>
9d002158:	02402821 	move	a1,s2
9d00215c:	04410005 	bgez	v0,9d002174 <.LVL38+0xbc>
9d002160:	02402021 	move	a0,s2
		P_u = 600;
9d002164:	3c029d01 	lui	v0,0x9d01
9d002168:	8c429a70 	lw	v0,-26000(v0)
9d00216c:	0b400866 	j	9d002198 <.LVL38+0xe0>
9d002170:	af828090 	sw	v0,-32624(gp)
	  }
	  else if(P_u < -600) {
9d002174:	3c029d01 	lui	v0,0x9d01
9d002178:	0f40253f 	jal	9d0094fc <.LFE0>
9d00217c:	8c459a74 	lw	a1,-25996(v0)
9d002180:	04400003 	bltz	v0,9d002190 <.LVL38+0xd8>
9d002184:	3c029d01 	lui	v0,0x9d01
	  angle = (float) 360*(P_count-CENTER)/(448*4);
	  P_ref = get_angle();
	  P_e = P_ref - angle;
	  P_eint = P_eint + P_e;
	  P_edot = (P_e - P_eprev)/0.005;
	  P_u = P_Kp*P_e + P_Ki*P_eint + P_Kd*P_edot;
9d002188:	0b400866 	j	9d002198 <.LVL38+0xe0>
9d00218c:	af928090 	sw	s2,-32624(gp)

	  if(P_u > 600) {
		P_u = 600;
	  }
	  else if(P_u < -600) {
		P_u = -600;
9d002190:	8c429a74 	lw	v0,-25996(v0)
9d002194:	af828090 	sw	v0,-32624(gp)
	  }

	  P_eprev = P_e;
9d002198:	af908088 	sw	s0,-32632(gp)
	  set_Peint(P_eint);
9d00219c:	0f402208 	jal	9d008820 <set_Peint>
9d0021a0:	02202021 	move	a0,s1

9d0021a4 <.LVL51>:

	  if(P_e > 0) {
9d0021a4:	00002021 	move	a0,zero
9d0021a8:	0f40253f 	jal	9d0094fc <.LFE0>
9d0021ac:	8f858084 	lw	a1,-32636(gp)
9d0021b0:	04410004 	bgez	v0,9d0021c4 <.LVL51+0x20>
9d0021b4:	24020001 	li	v0,1
	  	dir = 0;
9d0021b8:	af808028 	sw	zero,-32728(gp)
9d0021bc:	0b400872 	j	9d0021c8 <.LVL51+0x24>
9d0021c0:	00000000 	nop
	  }
	  else {
	  	dir = 1;
9d0021c4:	af828028 	sw	v0,-32728(gp)
	  }

	  set_Iref(P_u);
9d0021c8:	0f401fad 	jal	9d007eb4 <set_Iref>
9d0021cc:	8f848090 	lw	a0,-32624(gp)

9d0021d0 <.LVL53>:

	  if(StoringData == 1) {
9d0021d0:	8f838030 	lw	v1,-32720(gp)
9d0021d4:	24020001 	li	v0,1
9d0021d8:	14620009 	bne	v1,v0,9d002200 <.LVL53+0x30>
9d0021dc:	8f828064 	lw	v0,-32668(gp)
		Path[index] = angle;
9d0021e0:	8f838064 	lw	v1,-32668(gp)
9d0021e4:	00031880 	sll	v1,v1,0x2
9d0021e8:	3c02a000 	lui	v0,0xa000
9d0021ec:	24421088 	addiu	v0,v0,4232
9d0021f0:	00621021 	addu	v0,v1,v0
9d0021f4:	8f83807c 	lw	v1,-32644(gp)
9d0021f8:	ac430000 	sw	v1,0(v0)
	  }
	  
	  index++;
9d0021fc:	8f828064 	lw	v0,-32668(gp)
9d002200:	24420001 	addiu	v0,v0,1
9d002204:	af828064 	sw	v0,-32668(gp)
	  if(index >= TrajLen) {
9d002208:	8f83802c 	lw	v1,-32724(gp)
9d00220c:	0043102a 	slt	v0,v0,v1
9d002210:	14400006 	bnez	v0,9d00222c <.LVL54+0xc>
9d002214:	3c02bf88 	lui	v0,0xbf88
		set_mode(3);
9d002218:	0f402794 	jal	9d009e50 <set_mode>
9d00221c:	24040003 	li	a0,3

9d002220 <.LVL54>:
		index = 0;
9d002220:	af808064 	sw	zero,-32668(gp)
		StoringData = 0;
9d002224:	af808030 	sw	zero,-32720(gp)
	  }
		
  }
  
  IFS0bits.T4IF = 0;
9d002228:	3c02bf88 	lui	v0,0xbf88
9d00222c:	8c431030 	lw	v1,4144(v0)
9d002230:	7c038404 	ins	v1,zero,0x10,0x1
9d002234:	ac431030 	sw	v1,4144(v0)
}
9d002238:	8fa2006c 	lw	v0,108(sp)
9d00223c:	00400013 	mtlo	v0
9d002240:	8fa30068 	lw	v1,104(sp)
9d002244:	00600011 	mthi	v1
9d002248:	8fbf0064 	lw	ra,100(sp)
9d00224c:	8fb90060 	lw	t9,96(sp)
9d002250:	8fb8005c 	lw	t8,92(sp)
9d002254:	8fb20058 	lw	s2,88(sp)
9d002258:	8fb10054 	lw	s1,84(sp)
9d00225c:	8fb00050 	lw	s0,80(sp)
9d002260:	8faf004c 	lw	t7,76(sp)
9d002264:	8fae0048 	lw	t6,72(sp)
9d002268:	8fad0044 	lw	t5,68(sp)
9d00226c:	8fac0040 	lw	t4,64(sp)
9d002270:	8fab003c 	lw	t3,60(sp)
9d002274:	8faa0038 	lw	t2,56(sp)
9d002278:	8fa90034 	lw	t1,52(sp)
9d00227c:	8fa80030 	lw	t0,48(sp)
9d002280:	8fa7002c 	lw	a3,44(sp)
9d002284:	8fa60028 	lw	a2,40(sp)
9d002288:	8fa50024 	lw	a1,36(sp)
9d00228c:	8fa40020 	lw	a0,32(sp)
9d002290:	8fa3001c 	lw	v1,28(sp)
9d002294:	8fa20018 	lw	v0,24(sp)
9d002298:	8fa10014 	lw	at,20(sp)
9d00229c:	41606000 	di
9d0022a0:	000000c0 	ehb
9d0022a4:	8fba007c 	lw	k0,124(sp)
9d0022a8:	8fbb0078 	lw	k1,120(sp)
9d0022ac:	409a7000 	mtc0	k0,c0_epc
9d0022b0:	8fba0074 	lw	k0,116(sp)
9d0022b4:	27bd0080 	addiu	sp,sp,128
9d0022b8:	409a6002 	mtc0	k0,c0_srsctl
9d0022bc:	41dde800 	wrpgpr	sp,sp
9d0022c0:	409b6000 	mtc0	k1,c0_status
9d0022c4:	42000018 	eret

9d0022c8 <Control_5k>:

void __ISR(_TIMER_2_VECTOR, IPL5SOFT) Control_5k(void) {
9d0022c8:	415de800 	rdpgpr	sp,sp
9d0022cc:	401a7000 	mfc0	k0,c0_epc
9d0022d0:	401b6000 	mfc0	k1,c0_status
9d0022d4:	27bdff88 	addiu	sp,sp,-120
9d0022d8:	afba0074 	sw	k0,116(sp)
9d0022dc:	401a6002 	mfc0	k0,c0_srsctl
9d0022e0:	afbb0070 	sw	k1,112(sp)
9d0022e4:	afba006c 	sw	k0,108(sp)
9d0022e8:	7c1b7844 	ins	k1,zero,0x1,0xf
9d0022ec:	377b1400 	ori	k1,k1,0x1400
9d0022f0:	409b6000 	mtc0	k1,c0_status
9d0022f4:	afbf005c 	sw	ra,92(sp)
9d0022f8:	afb90058 	sw	t9,88(sp)
9d0022fc:	afb80054 	sw	t8,84(sp)
9d002300:	afb10050 	sw	s1,80(sp)
9d002304:	afb0004c 	sw	s0,76(sp)
9d002308:	afaf0048 	sw	t7,72(sp)
9d00230c:	afae0044 	sw	t6,68(sp)
9d002310:	afad0040 	sw	t5,64(sp)
9d002314:	afac003c 	sw	t4,60(sp)
9d002318:	afab0038 	sw	t3,56(sp)
9d00231c:	afaa0034 	sw	t2,52(sp)
9d002320:	afa90030 	sw	t1,48(sp)
9d002324:	afa8002c 	sw	t0,44(sp)
9d002328:	afa70028 	sw	a3,40(sp)
9d00232c:	afa60024 	sw	a2,36(sp)
9d002330:	afa50020 	sw	a1,32(sp)
9d002334:	afa4001c 	sw	a0,28(sp)
9d002338:	afa30018 	sw	v1,24(sp)
9d00233c:	afa20014 	sw	v0,20(sp)
9d002340:	afa10010 	sw	at,16(sp)
9d002344:	00001012 	mflo	v0
9d002348:	afa20064 	sw	v0,100(sp)
9d00234c:	00001810 	mfhi	v1
9d002350:	afa30060 	sw	v1,96(sp)
  //IDLE
  if(get_mode()==0) {
9d002354:	0f402791 	jal	9d009e44 <get_mode>
9d002358:	00000000 	nop

9d00235c <.LVL55>:
9d00235c:	14400006 	bnez	v0,9d002378 <.LVL55+0x1c>
9d002360:	3c02bf80 	lui	v0,0xbf80
	  OC1RS = 0;
9d002364:	ac403020 	sw	zero,12320(v0)
	  LATDbits.LATD8 = 0;
9d002368:	3c02bf88 	lui	v0,0xbf88
9d00236c:	944360e0 	lhu	v1,24800(v0)
9d002370:	7c034204 	ins	v1,zero,0x8,0x1
9d002374:	a44360e0 	sh	v1,24800(v0)
  }

  //PWM
  if(get_mode()==1) {
9d002378:	0f402791 	jal	9d009e44 <get_mode>
9d00237c:	00000000 	nop

9d002380 <.LVL56>:
9d002380:	24030001 	li	v1,1
9d002384:	14430011 	bne	v0,v1,9d0023cc <.LVL56+0x4c>
9d002388:	00000000 	nop
	  OC1RS = pwm;
9d00238c:	8f838024 	lw	v1,-32732(gp)
9d002390:	3c02bf80 	lui	v0,0xbf80
9d002394:	ac433020 	sw	v1,12320(v0)
	  if(dir == 1) {
9d002398:	8f838028 	lw	v1,-32728(gp)
9d00239c:	24020001 	li	v0,1
9d0023a0:	14620007 	bne	v1,v0,9d0023c0 <.LVL56+0x40>
9d0023a4:	3c02bf88 	lui	v0,0xbf88
		LATDbits.LATD8 = 1;
9d0023a8:	944360e0 	lhu	v1,24800(v0)
9d0023ac:	24040001 	li	a0,1
9d0023b0:	7c834204 	ins	v1,a0,0x8,0x1
9d0023b4:	a44360e0 	sh	v1,24800(v0)
9d0023b8:	0b4008f3 	j	9d0023cc <.LVL56+0x4c>
9d0023bc:	00000000 	nop
	  }
	  else {
		LATDbits.LATD8 = 0;
9d0023c0:	944360e0 	lhu	v1,24800(v0)
9d0023c4:	7c034204 	ins	v1,zero,0x8,0x1
9d0023c8:	a44360e0 	sh	v1,24800(v0)
	  }
  }

  //ITEST
  if(get_mode()==2) {
9d0023cc:	0f402791 	jal	9d009e44 <get_mode>
9d0023d0:	00000000 	nop

9d0023d4 <.LVL57>:
9d0023d4:	24030002 	li	v1,2
9d0023d8:	1443009e 	bne	v0,v1,9d002654 <.LBE6>
9d0023dc:	00000000 	nop

9d0023e0 <.LBB6>:
	  static float Kp = 0;
	  static float Ki = 0;
	  static int counter = 0;
	  static int plotind = 0;

	  Kp = get_Ikp();
9d0023e0:	0f401f9b 	jal	9d007e6c <get_Ikp>
9d0023e4:	00000000 	nop

9d0023e8 <.LVL58>:
	  Ki = get_Iki();
9d0023e8:	0f401f9e 	jal	9d007e78 <get_Iki>
9d0023ec:	af82809c 	sw	v0,-32612(gp)

9d0023f0 <.LVL59>:
	  eint = get_Ieint();
9d0023f0:	0f401fa1 	jal	9d007e84 <get_Ieint>
9d0023f4:	af8280a0 	sw	v0,-32608(gp)

9d0023f8 <.LVL60>:
9d0023f8:	0f4025af 	jal	9d0096bc <__fixsfsi>
9d0023fc:	00402021 	move	a0,v0
9d002400:	af828034 	sw	v0,-32716(gp)

	  adcval = (adc_sample_convert(0)-B)*M;
9d002404:	0f402293 	jal	9d008a4c <adc_sample_convert>
9d002408:	00002021 	move	a0,zero

9d00240c <.LVL62>:
9d00240c:	0f4026cd 	jal	9d009b34 <.LFE0>
9d002410:	00402021 	move	a0,v0
9d002414:	00402021 	move	a0,v0
9d002418:	3c029d01 	lui	v0,0x9d01
9d00241c:	0f401c36 	jal	9d0070d8 <__subsf3>
9d002420:	8c459a78 	lw	a1,-25992(v0)
9d002424:	00402021 	move	a0,v0
9d002428:	3c029d01 	lui	v0,0x9d01
9d00242c:	0f401edd 	jal	9d007b74 <.LFE4>
9d002430:	8c459a7c 	lw	a1,-25988(v0)
9d002434:	00408021 	move	s0,v0
9d002438:	af8280a4 	sw	v0,-32604(gp)
	  ref = Waveform[counter];
9d00243c:	8f8380a8 	lw	v1,-32600(gp)
9d002440:	00031880 	sll	v1,v1,0x2
9d002444:	3c02a000 	lui	v0,0xa000
9d002448:	24422028 	addiu	v0,v0,8232
9d00244c:	00621021 	addu	v0,v1,v0
9d002450:	8c440000 	lw	a0,0(v0)
9d002454:	0f40265d 	jal	9d009974 <__floatsisf>
9d002458:	00000000 	nop
	  e = ref - adcval;
9d00245c:	00402021 	move	a0,v0
9d002460:	0f401c36 	jal	9d0070d8 <__subsf3>
9d002464:	02002821 	move	a1,s0
9d002468:	00408021 	move	s0,v0
9d00246c:	af8280b0 	sw	v0,-32592(gp)
	  eint = eint + e;
9d002470:	8f848034 	lw	a0,-32716(gp)
9d002474:	0f40265d 	jal	9d009974 <__floatsisf>
9d002478:	00000000 	nop
9d00247c:	02002021 	move	a0,s0
9d002480:	0f401c38 	jal	9d0070e0 <__addsf3>
9d002484:	00402821 	move	a1,v0
9d002488:	0f4025af 	jal	9d0096bc <__fixsfsi>
9d00248c:	00402021 	move	a0,v0
9d002490:	af828034 	sw	v0,-32716(gp)
	  u = Kp*e + Ki*eint;
9d002494:	8f918034 	lw	s1,-32716(gp)
9d002498:	02002021 	move	a0,s0
9d00249c:	0f401edd 	jal	9d007b74 <.LFE4>
9d0024a0:	8f85809c 	lw	a1,-32612(gp)
9d0024a4:	00408021 	move	s0,v0
9d0024a8:	0f40265d 	jal	9d009974 <__floatsisf>
9d0024ac:	02202021 	move	a0,s1
9d0024b0:	00402021 	move	a0,v0
9d0024b4:	0f401edd 	jal	9d007b74 <.LFE4>
9d0024b8:	8f8580a0 	lw	a1,-32608(gp)
9d0024bc:	02002021 	move	a0,s0
9d0024c0:	0f401c38 	jal	9d0070e0 <__addsf3>
9d0024c4:	00402821 	move	a1,v0
9d0024c8:	af8280b4 	sw	v0,-32588(gp)
  
	  set_Ieint(eint);
9d0024cc:	8f848034 	lw	a0,-32716(gp)
9d0024d0:	0f40265d 	jal	9d009974 <__floatsisf>
9d0024d4:	00000000 	nop
9d0024d8:	0f401fa4 	jal	9d007e90 <set_Ieint>
9d0024dc:	00402021 	move	a0,v0

9d0024e0 <.LVL76>:

	  duty = abs(u/6);
9d0024e0:	8f8480b4 	lw	a0,-32588(gp)
9d0024e4:	3c029d01 	lui	v0,0x9d01
9d0024e8:	0f401cd4 	jal	9d007350 <__divsf3>
9d0024ec:	8c459a80 	lw	a1,-25984(v0)
9d0024f0:	0f4025af 	jal	9d0096bc <__fixsfsi>
9d0024f4:	00402021 	move	a0,v0
9d0024f8:	000227c3 	sra	a0,v0,0x1f
9d0024fc:	00821026 	xor	v0,a0,v0
9d002500:	0f40265d 	jal	9d009974 <__floatsisf>
9d002504:	00442023 	subu	a0,v0,a0
9d002508:	00408021 	move	s0,v0
9d00250c:	af8280b8 	sw	v0,-32584(gp)

	  if(e > 0) {
9d002510:	00002021 	move	a0,zero
9d002514:	0f40253f 	jal	9d0094fc <.LFE0>
9d002518:	8f8580b0 	lw	a1,-32592(gp)
9d00251c:	04430004 	bgezl	v0,9d002530 <.LVL76+0x50>
9d002520:	24020001 	li	v0,1
		dir = 0;
9d002524:	af808028 	sw	zero,-32728(gp)
9d002528:	0b40094e 	j	9d002538 <.LVL76+0x58>
9d00252c:	3c029d01 	lui	v0,0x9d01
	  }
	  else {
		dir = 1;
9d002530:	af828028 	sw	v0,-32728(gp)
	  }

	  if(duty > 100) {
9d002534:	3c029d01 	lui	v0,0x9d01
9d002538:	8c449a84 	lw	a0,-25980(v0)
9d00253c:	0f40253f 	jal	9d0094fc <.LFE0>
9d002540:	02002821 	move	a1,s0
9d002544:	04430005 	bgezl	v0,9d00255c <.LVL76+0x7c>
9d002548:	02002021 	move	a0,s0
		duty = 100;
9d00254c:	3c029d01 	lui	v0,0x9d01
9d002550:	8c429a84 	lw	v0,-25980(v0)
9d002554:	0b40095d 	j	9d002574 <.LVL76+0x94>
9d002558:	af8280b8 	sw	v0,-32584(gp)
	  }
	  else if(duty < 0) {
9d00255c:	0f40253f 	jal	9d0094fc <.LFE0>
9d002560:	00002821 	move	a1,zero
9d002564:	04430004 	bgezl	v0,9d002578 <.LVL76+0x98>
9d002568:	8f8480b8 	lw	a0,-32584(gp)
		duty = 0;
9d00256c:	00001021 	move	v0,zero
9d002570:	af8280b8 	sw	v0,-32584(gp)
	  }

	  pwm = abs((duty * 4000)/100);
9d002574:	8f8480b8 	lw	a0,-32584(gp)
9d002578:	3c029d01 	lui	v0,0x9d01
9d00257c:	0f401edd 	jal	9d007b74 <.LFE4>
9d002580:	8c459a88 	lw	a1,-25976(v0)
9d002584:	00402021 	move	a0,v0
9d002588:	3c029d01 	lui	v0,0x9d01
9d00258c:	0f401cd4 	jal	9d007350 <__divsf3>
9d002590:	8c459a84 	lw	a1,-25980(v0)
9d002594:	0f4025af 	jal	9d0096bc <__fixsfsi>
9d002598:	00402021 	move	a0,v0
9d00259c:	00021fc3 	sra	v1,v0,0x1f
9d0025a0:	00621026 	xor	v0,v1,v0
9d0025a4:	00431023 	subu	v0,v0,v1
9d0025a8:	af828024 	sw	v0,-32732(gp)

	  OC1RS = pwm;
9d0025ac:	8f838024 	lw	v1,-32732(gp)
9d0025b0:	3c02bf80 	lui	v0,0xbf80
9d0025b4:	ac433020 	sw	v1,12320(v0)
	  LATDbits.LATD8 = dir;
9d0025b8:	8f848028 	lw	a0,-32728(gp)
9d0025bc:	3c02bf88 	lui	v0,0xbf88
9d0025c0:	944360e0 	lhu	v1,24800(v0)
9d0025c4:	7c834204 	ins	v1,a0,0x8,0x1
9d0025c8:	a44360e0 	sh	v1,24800(v0)


	  if (StoringData == 1) {
9d0025cc:	8f838030 	lw	v1,-32720(gp)
9d0025d0:	24020001 	li	v0,1
9d0025d4:	1462001f 	bne	v1,v0,9d002654 <.LBE6>
9d0025d8:	8f9080bc 	lw	s0,-32580(gp)
		ADCarray[plotind] = adcval;
9d0025dc:	0f4025af 	jal	9d0096bc <__fixsfsi>
9d0025e0:	8f8480a4 	lw	a0,-32604(gp)
9d0025e4:	00101880 	sll	v1,s0,0x2
9d0025e8:	3c04a000 	lui	a0,0xa000
9d0025ec:	248420f0 	addiu	a0,a0,8432
9d0025f0:	00642021 	addu	a0,v1,a0
9d0025f4:	ac820000 	sw	v0,0(a0)
		REFarray[plotind] = Waveform[counter];
9d0025f8:	8f8280a8 	lw	v0,-32600(gp)
9d0025fc:	00022880 	sll	a1,v0,0x2
9d002600:	3c04a000 	lui	a0,0xa000
9d002604:	24842028 	addiu	a0,a0,8232
9d002608:	00a42021 	addu	a0,a1,a0
9d00260c:	8c840000 	lw	a0,0(a0)
9d002610:	3c05a000 	lui	a1,0xa000
9d002614:	24a52280 	addiu	a1,a1,8832
9d002618:	00651821 	addu	v1,v1,a1
9d00261c:	ac640000 	sw	a0,0(v1)
		plotind++;
9d002620:	26100001 	addiu	s0,s0,1
9d002624:	af9080bc 	sw	s0,-32580(gp)
		counter++;
9d002628:	24420001 	addiu	v0,v0,1
9d00262c:	38430032 	xori	v1,v0,0x32
9d002630:	0003100a 	movz	v0,zero,v1
9d002634:	af8280a8 	sw	v0,-32600(gp)
		if (counter == NUMSAMPS) {
		  counter = 0;
		}
		if (plotind == PLOTPTS) {
9d002638:	24020064 	li	v0,100
9d00263c:	16020005 	bne	s0,v0,9d002654 <.LBE6>
9d002640:	00000000 	nop
		  plotind = 0;
9d002644:	af8080bc 	sw	zero,-32580(gp)
		  StoringData = 0;
9d002648:	af808030 	sw	zero,-32720(gp)
		  set_mode(0);
9d00264c:	0f402794 	jal	9d009e50 <set_mode>
9d002650:	00002021 	move	a0,zero

9d002654 <.LBE6>:
	  }

  }

  //HOLD and TRACK
  if(get_mode()==3 || get_mode()==4) {
9d002654:	0f402791 	jal	9d009e44 <get_mode>
9d002658:	00000000 	nop

9d00265c <.LVL88>:
9d00265c:	24030003 	li	v1,3
9d002660:	10430006 	beq	v0,v1,9d00267c <.LBB7>
9d002664:	00000000 	nop
9d002668:	0f402791 	jal	9d009e44 <get_mode>
9d00266c:	00000000 	nop

9d002670 <.LVL89>:
9d002670:	24030004 	li	v1,4
9d002674:	1443006c 	bne	v0,v1,9d002828 <.LBE7+0x4>
9d002678:	3c02bf88 	lui	v0,0xbf88

9d00267c <.LBB7>:
	  static float u = 0;
	  static float duty = 0;
	  static float Kp = 0;
	  static float Ki = 0;

	  Kp = get_Ikp();
9d00267c:	0f401f9b 	jal	9d007e6c <get_Ikp>
9d002680:	00000000 	nop

9d002684 <.LVL90>:
	  Ki = get_Iki();
9d002684:	0f401f9e 	jal	9d007e78 <get_Iki>
9d002688:	af8280c0 	sw	v0,-32576(gp)

9d00268c <.LVL91>:
	  eint = get_Ieint();
9d00268c:	0f401fa1 	jal	9d007e84 <get_Ieint>
9d002690:	af8280c4 	sw	v0,-32572(gp)

9d002694 <.LVL92>:
9d002694:	0f4025af 	jal	9d0096bc <__fixsfsi>
9d002698:	00402021 	move	a0,v0
9d00269c:	af828034 	sw	v0,-32716(gp)

	  adcval = (adc_sample_convert(0)-B)*M;
9d0026a0:	0f402293 	jal	9d008a4c <adc_sample_convert>
9d0026a4:	00002021 	move	a0,zero

9d0026a8 <.LVL94>:
9d0026a8:	0f4026cd 	jal	9d009b34 <.LFE0>
9d0026ac:	00402021 	move	a0,v0
9d0026b0:	00402021 	move	a0,v0
9d0026b4:	3c029d01 	lui	v0,0x9d01
9d0026b8:	0f401c36 	jal	9d0070d8 <__subsf3>
9d0026bc:	8c459a78 	lw	a1,-25992(v0)
9d0026c0:	00402021 	move	a0,v0
9d0026c4:	3c029d01 	lui	v0,0x9d01
9d0026c8:	0f401edd 	jal	9d007b74 <.LFE4>
9d0026cc:	8c459a7c 	lw	a1,-25988(v0)
	  ref = get_Iref();
9d0026d0:	0f401fb6 	jal	9d007ed8 <get_Iref>
9d0026d4:	af8280c8 	sw	v0,-32568(gp)

9d0026d8 <.LVL98>:
	  e = ref - adcval;
9d0026d8:	00402021 	move	a0,v0
9d0026dc:	0f401c36 	jal	9d0070d8 <__subsf3>
9d0026e0:	8f8580c8 	lw	a1,-32568(gp)
9d0026e4:	00408021 	move	s0,v0
9d0026e8:	af8280d0 	sw	v0,-32560(gp)
	  eint = eint + e;
9d0026ec:	8f848034 	lw	a0,-32716(gp)
9d0026f0:	0f40265d 	jal	9d009974 <__floatsisf>
9d0026f4:	00000000 	nop
9d0026f8:	02002021 	move	a0,s0
9d0026fc:	0f401c38 	jal	9d0070e0 <__addsf3>
9d002700:	00402821 	move	a1,v0
9d002704:	0f4025af 	jal	9d0096bc <__fixsfsi>
9d002708:	00402021 	move	a0,v0
9d00270c:	af828034 	sw	v0,-32716(gp)
	  u = Kp*e + Ki*eint;
9d002710:	8f918034 	lw	s1,-32716(gp)
9d002714:	02002021 	move	a0,s0
9d002718:	0f401edd 	jal	9d007b74 <.LFE4>
9d00271c:	8f8580c0 	lw	a1,-32576(gp)
9d002720:	00408021 	move	s0,v0
9d002724:	0f40265d 	jal	9d009974 <__floatsisf>
9d002728:	02202021 	move	a0,s1
9d00272c:	00402021 	move	a0,v0
9d002730:	0f401edd 	jal	9d007b74 <.LFE4>
9d002734:	8f8580c4 	lw	a1,-32572(gp)
9d002738:	02002021 	move	a0,s0
9d00273c:	0f401c38 	jal	9d0070e0 <__addsf3>
9d002740:	00402821 	move	a1,v0
9d002744:	af8280d4 	sw	v0,-32556(gp)
  
	  if(eint > 1000) {
9d002748:	8f828034 	lw	v0,-32716(gp)
9d00274c:	284203e9 	slti	v0,v0,1001
9d002750:	14400005 	bnez	v0,9d002768 <.LVL107+0x8>
9d002754:	00000000 	nop
		set_Ieint(0);
9d002758:	0f401fa4 	jal	9d007e90 <set_Ieint>
9d00275c:	00002021 	move	a0,zero

9d002760 <.LVL107>:
9d002760:	0b4009e0 	j	9d002780 <.LVL109+0x4>
9d002764:	8f8480d4 	lw	a0,-32556(gp)
	  }
	  else {
		set_Ieint(eint);
9d002768:	8f848034 	lw	a0,-32716(gp)
9d00276c:	0f40265d 	jal	9d009974 <__floatsisf>
9d002770:	00000000 	nop
9d002774:	0f401fa4 	jal	9d007e90 <set_Ieint>
9d002778:	00402021 	move	a0,v0

9d00277c <.LVL109>:
	  }
	  else if(duty < 0) {
		duty = 0;
	  }

	  duty = abs(u/6);
9d00277c:	8f8480d4 	lw	a0,-32556(gp)
9d002780:	3c029d01 	lui	v0,0x9d01
9d002784:	0f401cd4 	jal	9d007350 <__divsf3>
9d002788:	8c459a80 	lw	a1,-25984(v0)
9d00278c:	0f4025af 	jal	9d0096bc <__fixsfsi>
9d002790:	00402021 	move	a0,v0
9d002794:	000227c3 	sra	a0,v0,0x1f
9d002798:	00821026 	xor	v0,a0,v0
9d00279c:	0f40265d 	jal	9d009974 <__floatsisf>
9d0027a0:	00442023 	subu	a0,v0,a0
9d0027a4:	00408021 	move	s0,v0

	  if(e > 0) {
9d0027a8:	00002021 	move	a0,zero
9d0027ac:	0f40253f 	jal	9d0094fc <.LFE0>
9d0027b0:	8f8580d0 	lw	a1,-32560(gp)
9d0027b4:	04410004 	bgez	v0,9d0027c8 <.LVL109+0x4c>
9d0027b8:	24020001 	li	v0,1
		dir = 0;
9d0027bc:	af808028 	sw	zero,-32728(gp)
9d0027c0:	0b4009f4 	j	9d0027d0 <.LVL109+0x54>
9d0027c4:	02002021 	move	a0,s0
	  }
	  else {
		dir = 1;
9d0027c8:	af828028 	sw	v0,-32728(gp)
	  }

	  pwm = abs((duty * 4000)/100);
9d0027cc:	02002021 	move	a0,s0
9d0027d0:	3c029d01 	lui	v0,0x9d01
9d0027d4:	0f401edd 	jal	9d007b74 <.LFE4>
9d0027d8:	8c459a88 	lw	a1,-25976(v0)
9d0027dc:	00402021 	move	a0,v0
9d0027e0:	3c029d01 	lui	v0,0x9d01
9d0027e4:	0f401cd4 	jal	9d007350 <__divsf3>
9d0027e8:	8c459a84 	lw	a1,-25980(v0)
9d0027ec:	0f4025af 	jal	9d0096bc <__fixsfsi>
9d0027f0:	00402021 	move	a0,v0
9d0027f4:	00021fc3 	sra	v1,v0,0x1f
9d0027f8:	00621026 	xor	v0,v1,v0
9d0027fc:	00431023 	subu	v0,v0,v1
9d002800:	af828024 	sw	v0,-32732(gp)

	  OC1RS = pwm;
9d002804:	8f838024 	lw	v1,-32732(gp)
9d002808:	3c02bf80 	lui	v0,0xbf80
9d00280c:	ac433020 	sw	v1,12320(v0)
	  LATDbits.LATD8 = dir;
9d002810:	8f848028 	lw	a0,-32728(gp)
9d002814:	3c02bf88 	lui	v0,0xbf88
9d002818:	944360e0 	lhu	v1,24800(v0)
9d00281c:	7c834204 	ins	v1,a0,0x8,0x1
9d002820:	a44360e0 	sh	v1,24800(v0)

9d002824 <.LBE7>:

  }
	 
  IFS0bits.T2IF = 0;
9d002824:	3c02bf88 	lui	v0,0xbf88
9d002828:	8c431030 	lw	v1,4144(v0)
9d00282c:	7c034204 	ins	v1,zero,0x8,0x1
9d002830:	ac431030 	sw	v1,4144(v0)
}
9d002834:	8fa20064 	lw	v0,100(sp)
9d002838:	00400013 	mtlo	v0
9d00283c:	8fa30060 	lw	v1,96(sp)
9d002840:	00600011 	mthi	v1
9d002844:	8fbf005c 	lw	ra,92(sp)
9d002848:	8fb90058 	lw	t9,88(sp)
9d00284c:	8fb80054 	lw	t8,84(sp)
9d002850:	8fb10050 	lw	s1,80(sp)
9d002854:	8fb0004c 	lw	s0,76(sp)
9d002858:	8faf0048 	lw	t7,72(sp)
9d00285c:	8fae0044 	lw	t6,68(sp)
9d002860:	8fad0040 	lw	t5,64(sp)
9d002864:	8fac003c 	lw	t4,60(sp)
9d002868:	8fab0038 	lw	t3,56(sp)
9d00286c:	8faa0034 	lw	t2,52(sp)
9d002870:	8fa90030 	lw	t1,48(sp)
9d002874:	8fa8002c 	lw	t0,44(sp)
9d002878:	8fa70028 	lw	a3,40(sp)
9d00287c:	8fa60024 	lw	a2,36(sp)
9d002880:	8fa50020 	lw	a1,32(sp)
9d002884:	8fa4001c 	lw	a0,28(sp)
9d002888:	8fa30018 	lw	v1,24(sp)
9d00288c:	8fa20014 	lw	v0,20(sp)
9d002890:	8fa10010 	lw	at,16(sp)
9d002894:	41606000 	di
9d002898:	000000c0 	ehb
9d00289c:	8fba0074 	lw	k0,116(sp)
9d0028a0:	8fbb0070 	lw	k1,112(sp)
9d0028a4:	409a7000 	mtc0	k0,c0_epc
9d0028a8:	8fba006c 	lw	k0,108(sp)
9d0028ac:	27bd0078 	addiu	sp,sp,120
9d0028b0:	409a6002 	mtc0	k0,c0_srsctl
9d0028b4:	41dde800 	wrpgpr	sp,sp
9d0028b8:	409b6000 	mtc0	k1,c0_status
9d0028bc:	42000018 	eret

9d0028c0 <main>:

void makeWaveform(void);

int main() 
{
9d0028c0:	27bdfef0 	addiu	sp,sp,-272
9d0028c4:	afbf010c 	sw	ra,268(sp)
9d0028c8:	afbe0108 	sw	s8,264(sp)
9d0028cc:	afb70104 	sw	s7,260(sp)
9d0028d0:	afb60100 	sw	s6,256(sp)
9d0028d4:	afb500fc 	sw	s5,252(sp)
9d0028d8:	afb400f8 	sw	s4,248(sp)
9d0028dc:	afb300f4 	sw	s3,244(sp)
9d0028e0:	afb200f0 	sw	s2,240(sp)
9d0028e4:	afb100ec 	sw	s1,236(sp)
  char buffer[BUF_SIZE];
  NU32_Startup(); // cache on, min flash wait, interrupts on, LED/button init, UART init
9d0028e8:	0f401e6c 	jal	9d0079b0 <.LFE29>
9d0028ec:	afb000e8 	sw	s0,232(sp)

9d0028f0 <.LVL117>:

  NU32_LED1 = 1;  // turn off the LEDs
9d0028f0:	3c02bf88 	lui	v0,0xbf88
9d0028f4:	90436160 	lbu	v1,24928(v0)
9d0028f8:	24040001 	li	a0,1
9d0028fc:	7c830004 	ins	v1,a0,0x0,0x1
9d002900:	a0436160 	sb	v1,24928(v0)
  NU32_LED2 = 1;        
9d002904:	90436160 	lbu	v1,24928(v0)
9d002908:	7c830844 	ins	v1,a0,0x1,0x1
9d00290c:	a0436160 	sb	v1,24928(v0)

  __builtin_disable_interrupts();
9d002910:	41626000 	di	v0
9d002914:	000000c0 	ehb
  // in future, initialize modules or peripherals here
  LCD_Setup();
9d002918:	0f401670 	jal	9d0059c0 <LCD_Setup>
9d00291c:	00000000 	nop

9d002920 <.LVL118>:
  encoder_init();
9d002920:	0f4022d0 	jal	9d008b40 <encoder_init>
9d002924:	00000000 	nop

9d002928 <.LVL119>:
  adc_init();
9d002928:	0f402268 	jal	9d0089a0 <.LFE0>
9d00292c:	00000000 	nop

9d002930 <.LVL120>:
  currentcont_init();
9d002930:	0f401f4c 	jal	9d007d30 <currentcont_init>
9d002934:	00000000 	nop

9d002938 <.LVL121>:
  positioncont_init();
9d002938:	0f4021d2 	jal	9d008748 <positioncont_init>
9d00293c:	00000000 	nop

9d002940 <.LVL122>:
  __builtin_enable_interrupts();
9d002940:	41626020 	ei	v0

  set_mode(0);
9d002944:	0f402794 	jal	9d009e50 <set_mode>
9d002948:	00002021 	move	a0,zero

9d00294c <.LVL123>:
  makeWaveform();
9d00294c:	0f400c7c 	jal	9d0031f0 <makeWaveform>
9d002950:	3c17bf88 	lui	s7,0xbf88

9d002954 <.LVL124>:

  while(1)
  {
    NU32_ReadUART3(buffer,BUF_SIZE); // we expect the next character to be a menu command
    NU32_LED2 = 1;                   // clear the error LED
    switch (buffer[0]) {
9d002954:	3c1e9d00 	lui	s8,0x9d00
9d002958:	27de29b4 	addiu	s8,s8,10676

		sprintf(buffer,"%d\r\n", TrajLen);
		NU32_WriteUART3(buffer);

		for (i=0; i<TrajLen; i++) {
		  sprintf(buffer, "%f %f\r\n", Trajectory[i], Path[i]);
9d00295c:	3c11a000 	lui	s1,0xa000
9d002960:	263100e8 	addiu	s1,s1,232
9d002964:	3c16a000 	lui	s6,0xa000
9d002968:	26d61088 	addiu	s6,s6,4232
  set_mode(0);
  makeWaveform();

  while(1)
  {
    NU32_ReadUART3(buffer,BUF_SIZE); // we expect the next character to be a menu command
9d00296c:	27a40010 	addiu	a0,sp,16
9d002970:	0f401eb1 	jal	9d007ac4 <NU32_ReadUART3>
9d002974:	240500c8 	li	a1,200

9d002978 <.LVL125>:
    NU32_LED2 = 1;                   // clear the error LED
9d002978:	92e26160 	lbu	v0,24928(s7)
9d00297c:	24030001 	li	v1,1
9d002980:	7c620844 	ins	v0,v1,0x1,0x1
9d002984:	a2e26160 	sb	v0,24928(s7)
    switch (buffer[0]) {
9d002988:	93a20010 	lbu	v0,16(sp)
9d00298c:	2442ff9f 	addiu	v0,v0,-97
9d002990:	304300ff 	andi	v1,v0,0xff
9d002994:	2c630018 	sltiu	v1,v1,24
9d002998:	10600210 	beqz	v1,9d0031dc <.LBE18+0x8>
9d00299c:	304200ff 	andi	v0,v0,0xff
9d0029a0:	00021080 	sll	v0,v0,0x2
9d0029a4:	03c21021 	addu	v0,s8,v0
9d0029a8:	8c420000 	lw	v0,0(v0)
9d0029ac:	00400008 	jr	v0
9d0029b0:	00000000 	nop
9d0029b4:	9d002a14 	0x9d002a14
9d0029b8:	9d002a40 	0x9d002a40
9d0029bc:	9d002a94 	0x9d002a94
9d0029c0:	9d002ad4 	0x9d002ad4
9d0029c4:	9d002b30 	0x9d002b30
9d0029c8:	9d002b70 	0x9d002b70
9d0029cc:	9d002c30 	0x9d002c30
9d0029d0:	9d002ca8 	0x9d002ca8
9d0029d4:	9d002cf0 	0x9d002cf0
9d0029d8:	9d002d8c 	0x9d002d8c
9d0029dc:	9d002df4 	0x9d002df4
9d0029e0:	9d002e8c 	0x9d002e8c
9d0029e4:	9d002ef4 	0x9d002ef4
9d0029e8:	9d002fb0 	0x9d002fb0
9d0029ec:	9d00306c 	0x9d00306c
9d0029f0:	9d0030fc 	0x9d0030fc
9d0029f4:	9d003144 	0x9d003144
9d0029f8:	9d002ec8 	0x9d002ec8
9d0029fc:	9d0031dc 	0x9d0031dc
9d002a00:	9d0031dc 	0x9d0031dc
9d002a04:	9d0031dc 	0x9d0031dc
9d002a08:	9d0031dc 	0x9d0031dc
9d002a0c:	9d0031dc 	0x9d0031dc
9d002a10:	9d003168 	0x9d003168
      case 'a': 
      {
		sprintf(buffer,"%d\r\n", adc_sample_convert(0));
9d002a14:	0f402293 	jal	9d008a4c <adc_sample_convert>
9d002a18:	00002021 	move	a0,zero

9d002a1c <.LVL126>:
9d002a1c:	27a40010 	addiu	a0,sp,16
9d002a20:	3c059d01 	lui	a1,0x9d01
9d002a24:	24a59a34 	addiu	a1,a1,-26060
9d002a28:	0f402629 	jal	9d0098a4 <.LFE0>
9d002a2c:	00403021 	move	a2,v0

9d002a30 <.LVL127>:
        NU32_WriteUART3(buffer);
9d002a30:	0f401ece 	jal	9d007b38 <NU32_WriteUART3>
9d002a34:	27a40010 	addiu	a0,sp,16

9d002a38 <.LVL128>:
        break;
9d002a38:	0b400a5c 	j	9d002970 <.LVL124+0x1c>
9d002a3c:	27a40010 	addiu	a0,sp,16
      }

      case 'b': 
      {
		sprintf(buffer,"%5.3f\r\n", (adc_sample_convert(0)-B)*M);
9d002a40:	0f402293 	jal	9d008a4c <adc_sample_convert>
9d002a44:	00002021 	move	a0,zero

9d002a48 <.LVL129>:
9d002a48:	0f4026cd 	jal	9d009b34 <.LFE0>
9d002a4c:	00402021 	move	a0,v0
9d002a50:	00402021 	move	a0,v0
9d002a54:	3c029d01 	lui	v0,0x9d01
9d002a58:	0f401c36 	jal	9d0070d8 <__subsf3>
9d002a5c:	8c459a78 	lw	a1,-25992(v0)
9d002a60:	00402021 	move	a0,v0
9d002a64:	3c029d01 	lui	v0,0x9d01
9d002a68:	0f401edd 	jal	9d007b74 <.LFE4>
9d002a6c:	8c459a7c 	lw	a1,-25988(v0)
9d002a70:	27a40010 	addiu	a0,sp,16
9d002a74:	3c059d01 	lui	a1,0x9d01
9d002a78:	24a59a3c 	addiu	a1,a1,-26052
9d002a7c:	0f402629 	jal	9d0098a4 <.LFE0>
9d002a80:	00403021 	move	a2,v0

9d002a84 <.LVL133>:
        NU32_WriteUART3(buffer);
9d002a84:	0f401ece 	jal	9d007b38 <NU32_WriteUART3>
9d002a88:	27a40010 	addiu	a0,sp,16

9d002a8c <.LVL134>:
        break;
9d002a8c:	0b400a5c 	j	9d002970 <.LVL124+0x1c>
9d002a90:	27a40010 	addiu	a0,sp,16
      }

      case 'c': 
      {
        sprintf(buffer,"%d\r\n", encoder_counts());
9d002a94:	0f4022c2 	jal	9d008b08 <encoder_counts>
9d002a98:	3c109d01 	lui	s0,0x9d01

9d002a9c <.LVL135>:
9d002a9c:	27a40010 	addiu	a0,sp,16
9d002aa0:	26059a34 	addiu	a1,s0,-26060
9d002aa4:	0f402629 	jal	9d0098a4 <.LFE0>
9d002aa8:	00403021 	move	a2,v0

9d002aac <.LVL136>:
		sprintf(buffer,"%d\r\n", encoder_counts());
9d002aac:	0f4022c2 	jal	9d008b08 <encoder_counts>
9d002ab0:	00000000 	nop

9d002ab4 <.LVL137>:
9d002ab4:	27a40010 	addiu	a0,sp,16
9d002ab8:	26059a34 	addiu	a1,s0,-26060
9d002abc:	0f402629 	jal	9d0098a4 <.LFE0>
9d002ac0:	00403021 	move	a2,v0

9d002ac4 <.LVL138>:
        NU32_WriteUART3(buffer);
9d002ac4:	0f401ece 	jal	9d007b38 <NU32_WriteUART3>
9d002ac8:	27a40010 	addiu	a0,sp,16

9d002acc <.LVL139>:
        break;
9d002acc:	0b400a5c 	j	9d002970 <.LVL124+0x1c>
9d002ad0:	27a40010 	addiu	a0,sp,16

9d002ad4 <.LBB9>:
      case 'd':                      // dummy command for demonstration purposes
      {
		double deg = 0.0;
        int count = 0;

		count = encoder_counts();
9d002ad4:	0f4022c2 	jal	9d008b08 <encoder_counts>
9d002ad8:	00000000 	nop

9d002adc <.LVL141>:
		count = encoder_counts();
9d002adc:	0f4022c2 	jal	9d008b08 <encoder_counts>
9d002ae0:	00000000 	nop

9d002ae4 <.LVL142>:
		deg = (double) 360*(count-CENTER)/(448*4);
9d002ae4:	0f40265d 	jal	9d009974 <__floatsisf>
9d002ae8:	24448000 	addiu	a0,v0,-32768
9d002aec:	00402021 	move	a0,v0
9d002af0:	3c029d01 	lui	v0,0x9d01
9d002af4:	0f401edd 	jal	9d007b74 <.LFE4>
9d002af8:	8c459a64 	lw	a1,-26012(v0)
9d002afc:	00402021 	move	a0,v0
9d002b00:	3c029d01 	lui	v0,0x9d01
9d002b04:	0f401cd4 	jal	9d007350 <__divsf3>
9d002b08:	8c459a68 	lw	a1,-26008(v0)

		sprintf(buffer,"%f\r\n", deg);
9d002b0c:	27a40010 	addiu	a0,sp,16
9d002b10:	3c059d01 	lui	a1,0x9d01
9d002b14:	24a59a44 	addiu	a1,a1,-26044
9d002b18:	0f402629 	jal	9d0098a4 <.LFE0>
9d002b1c:	00403021 	move	a2,v0

9d002b20 <.LVL146>:
        NU32_WriteUART3(buffer);
9d002b20:	0f401ece 	jal	9d007b38 <NU32_WriteUART3>
9d002b24:	27a40010 	addiu	a0,sp,16

9d002b28 <.LVL147>:
        break;
9d002b28:	0b400a5c 	j	9d002970 <.LVL124+0x1c>
9d002b2c:	27a40010 	addiu	a0,sp,16

9d002b30 <.LBE9>:
      }

      case 'e': 
      {
        sprintf(buffer,"%d\r\n", encoder_reset());
9d002b30:	0f4022c9 	jal	9d008b24 <encoder_reset>
9d002b34:	3c109d01 	lui	s0,0x9d01

9d002b38 <.LVL148>:
9d002b38:	27a40010 	addiu	a0,sp,16
9d002b3c:	26059a34 	addiu	a1,s0,-26060
9d002b40:	0f402629 	jal	9d0098a4 <.LFE0>
9d002b44:	00403021 	move	a2,v0

9d002b48 <.LVL149>:
		sprintf(buffer,"%d\r\n", encoder_counts());
9d002b48:	0f4022c2 	jal	9d008b08 <encoder_counts>
9d002b4c:	00000000 	nop

9d002b50 <.LVL150>:
9d002b50:	27a40010 	addiu	a0,sp,16
9d002b54:	26059a34 	addiu	a1,s0,-26060
9d002b58:	0f402629 	jal	9d0098a4 <.LFE0>
9d002b5c:	00403021 	move	a2,v0

9d002b60 <.LVL151>:
        NU32_WriteUART3(buffer);
9d002b60:	0f401ece 	jal	9d007b38 <NU32_WriteUART3>
9d002b64:	27a40010 	addiu	a0,sp,16

9d002b68 <.LVL152>:
        break;
9d002b68:	0b400a5c 	j	9d002970 <.LVL124+0x1c>
9d002b6c:	27a40010 	addiu	a0,sp,16

9d002b70 <.LBB10>:
      }

      case 'f': 
      {
		int duty = 0;
9d002b70:	afa000d8 	sw	zero,216(sp)
        NU32_ReadUART3(buffer,BUF_SIZE);
9d002b74:	27a40010 	addiu	a0,sp,16
9d002b78:	0f401eb1 	jal	9d007ac4 <NU32_ReadUART3>
9d002b7c:	240500c8 	li	a1,200

9d002b80 <.LVL153>:
		

		__builtin_disable_interrupts();
9d002b80:	41626000 	di	v0
9d002b84:	000000c0 	ehb
		sscanf(buffer, "%d", &duty);
9d002b88:	27a40010 	addiu	a0,sp,16
9d002b8c:	3c029d01 	lui	v0,0x9d01
9d002b90:	24459a4c 	addiu	a1,v0,-26036
9d002b94:	0f4026b8 	jal	9d009ae0 <_sscanf_cdfFnopuxX>
9d002b98:	27a600d8 	addiu	a2,sp,216

9d002b9c <.LVL154>:

		if(duty > 0) {
9d002b9c:	8fa200d8 	lw	v0,216(sp)
9d002ba0:	58400004 	blezl	v0,9d002bb4 <.LVL154+0x18>
9d002ba4:	24030001 	li	v1,1
		  dir = 0;
9d002ba8:	af808028 	sw	zero,-32728(gp)
9d002bac:	0b400aef 	j	9d002bbc <.LVL154+0x20>
9d002bb0:	00021880 	sll	v1,v0,0x2
		}
		else {
		  dir = 1;
9d002bb4:	af838028 	sw	v1,-32728(gp)
		}
		pwm = abs((duty * 4000)/100);
9d002bb8:	00021880 	sll	v1,v0,0x2
9d002bbc:	000221c0 	sll	a0,v0,0x7
9d002bc0:	00831823 	subu	v1,a0,v1
9d002bc4:	00621021 	addu	v0,v1,v0
9d002bc8:	00021940 	sll	v1,v0,0x5
9d002bcc:	3c0251eb 	lui	v0,0x51eb
9d002bd0:	3442851f 	ori	v0,v0,0x851f
9d002bd4:	00620018 	mult	v1,v0
9d002bd8:	00001010 	mfhi	v0
9d002bdc:	00021143 	sra	v0,v0,0x5
9d002be0:	00031fc3 	sra	v1,v1,0x1f
9d002be4:	00431023 	subu	v0,v0,v1
9d002be8:	00021fc3 	sra	v1,v0,0x1f
9d002bec:	00621026 	xor	v0,v1,v0
9d002bf0:	00431023 	subu	v0,v0,v1
9d002bf4:	af828024 	sw	v0,-32732(gp)
		set_mode(1);
9d002bf8:	0f402794 	jal	9d009e50 <set_mode>
9d002bfc:	24040001 	li	a0,1

9d002c00 <.LVL155>:

		__builtin_enable_interrupts();
9d002c00:	41626020 	ei	v0

		sprintf(buffer,"%d\r\n", get_mode());
9d002c04:	0f402791 	jal	9d009e44 <get_mode>
9d002c08:	00000000 	nop

9d002c0c <.LVL156>:
9d002c0c:	27a40010 	addiu	a0,sp,16
9d002c10:	3c059d01 	lui	a1,0x9d01
9d002c14:	24a59a34 	addiu	a1,a1,-26060
9d002c18:	0f402629 	jal	9d0098a4 <.LFE0>
9d002c1c:	00403021 	move	a2,v0

9d002c20 <.LVL157>:
        NU32_WriteUART3(buffer);
9d002c20:	0f401ece 	jal	9d007b38 <NU32_WriteUART3>
9d002c24:	27a40010 	addiu	a0,sp,16

9d002c28 <.LBE10>:
  set_mode(0);
  makeWaveform();

  while(1)
  {
    NU32_ReadUART3(buffer,BUF_SIZE); // we expect the next character to be a menu command
9d002c28:	0b400a5c 	j	9d002970 <.LVL124+0x1c>
9d002c2c:	27a40010 	addiu	a0,sp,16

9d002c30 <.LBB11>:
        break;
      }

      case 'g': 
      {
        float kptemp = 0;
9d002c30:	00001021 	move	v0,zero
9d002c34:	afa200dc 	sw	v0,220(sp)
		float kitemp = 0;
9d002c38:	afa200d8 	sw	v0,216(sp)

        NU32_ReadUART3(buffer,BUF_SIZE);
9d002c3c:	27a40010 	addiu	a0,sp,16
9d002c40:	0f401eb1 	jal	9d007ac4 <NU32_ReadUART3>
9d002c44:	240500c8 	li	a1,200

9d002c48 <.LVL159>:
		sscanf(buffer, "%f", &kptemp);
9d002c48:	27a40010 	addiu	a0,sp,16
9d002c4c:	3c109d01 	lui	s0,0x9d01
9d002c50:	26059a50 	addiu	a1,s0,-26032
9d002c54:	0f4026b8 	jal	9d009ae0 <_sscanf_cdfFnopuxX>
9d002c58:	27a600dc 	addiu	a2,sp,220

9d002c5c <.LVL160>:
        NU32_ReadUART3(buffer,BUF_SIZE);
9d002c5c:	27a40010 	addiu	a0,sp,16
9d002c60:	0f401eb1 	jal	9d007ac4 <NU32_ReadUART3>
9d002c64:	240500c8 	li	a1,200

9d002c68 <.LVL161>:
		sscanf(buffer, "%f", &kitemp);
9d002c68:	27a40010 	addiu	a0,sp,16
9d002c6c:	26059a50 	addiu	a1,s0,-26032
9d002c70:	0f4026b8 	jal	9d009ae0 <_sscanf_cdfFnopuxX>
9d002c74:	27a600d8 	addiu	a2,sp,216

9d002c78 <.LVL162>:
		
		set_Igains(kptemp, kitemp);
9d002c78:	8fa400dc 	lw	a0,220(sp)
9d002c7c:	0f401f8f 	jal	9d007e3c <set_Igains>
9d002c80:	8fa500d8 	lw	a1,216(sp)

9d002c84 <.LVL163>:
		
        sprintf(buffer,"%d\r\n", 1);
9d002c84:	27a40010 	addiu	a0,sp,16
9d002c88:	3c059d01 	lui	a1,0x9d01
9d002c8c:	24a59a34 	addiu	a1,a1,-26060
9d002c90:	0f402629 	jal	9d0098a4 <.LFE0>
9d002c94:	24060001 	li	a2,1

9d002c98 <.LVL164>:
        NU32_WriteUART3(buffer);
9d002c98:	0f401ece 	jal	9d007b38 <NU32_WriteUART3>
9d002c9c:	27a40010 	addiu	a0,sp,16

9d002ca0 <.LBE11>:
  set_mode(0);
  makeWaveform();

  while(1)
  {
    NU32_ReadUART3(buffer,BUF_SIZE); // we expect the next character to be a menu command
9d002ca0:	0b400a5c 	j	9d002970 <.LVL124+0x1c>
9d002ca4:	27a40010 	addiu	a0,sp,16
        break;
      }

      case 'h': 
      {
        sprintf(buffer,"%f\r\n", get_Ikp());
9d002ca8:	0f401f9b 	jal	9d007e6c <get_Ikp>
9d002cac:	3c109d01 	lui	s0,0x9d01

9d002cb0 <.LVL166>:
9d002cb0:	27a40010 	addiu	a0,sp,16
9d002cb4:	26059a44 	addiu	a1,s0,-26044
9d002cb8:	0f402629 	jal	9d0098a4 <.LFE0>
9d002cbc:	00403021 	move	a2,v0

9d002cc0 <.LVL167>:
        NU32_WriteUART3(buffer);
9d002cc0:	0f401ece 	jal	9d007b38 <NU32_WriteUART3>
9d002cc4:	27a40010 	addiu	a0,sp,16

9d002cc8 <.LVL168>:
		sprintf(buffer,"%f\r\n", get_Iki());
9d002cc8:	0f401f9e 	jal	9d007e78 <get_Iki>
9d002ccc:	00000000 	nop

9d002cd0 <.LVL169>:
9d002cd0:	27a40010 	addiu	a0,sp,16
9d002cd4:	26059a44 	addiu	a1,s0,-26044
9d002cd8:	0f402629 	jal	9d0098a4 <.LFE0>
9d002cdc:	00403021 	move	a2,v0

9d002ce0 <.LVL170>:
        NU32_WriteUART3(buffer);
9d002ce0:	0f401ece 	jal	9d007b38 <NU32_WriteUART3>
9d002ce4:	27a40010 	addiu	a0,sp,16

9d002ce8 <.LVL171>:

        break;
9d002ce8:	0b400a5c 	j	9d002970 <.LVL124+0x1c>
9d002cec:	27a40010 	addiu	a0,sp,16

9d002cf0 <.LBB12>:
      }

	  case 'i': 
      {
        float kptemp = 0;
9d002cf0:	00001021 	move	v0,zero
9d002cf4:	afa200e0 	sw	v0,224(sp)
		float kitemp = 0;
9d002cf8:	afa200dc 	sw	v0,220(sp)
		float kdtemp = 0;
9d002cfc:	afa200d8 	sw	v0,216(sp)

        NU32_ReadUART3(buffer,BUF_SIZE);
9d002d00:	27a40010 	addiu	a0,sp,16
9d002d04:	0f401eb1 	jal	9d007ac4 <NU32_ReadUART3>
9d002d08:	240500c8 	li	a1,200

9d002d0c <.LVL172>:
		sscanf(buffer, "%f", &kptemp);
9d002d0c:	27a40010 	addiu	a0,sp,16
9d002d10:	3c109d01 	lui	s0,0x9d01
9d002d14:	26059a50 	addiu	a1,s0,-26032
9d002d18:	0f4026b8 	jal	9d009ae0 <_sscanf_cdfFnopuxX>
9d002d1c:	27a600e0 	addiu	a2,sp,224

9d002d20 <.LVL173>:
        NU32_ReadUART3(buffer,BUF_SIZE);
9d002d20:	27a40010 	addiu	a0,sp,16
9d002d24:	0f401eb1 	jal	9d007ac4 <NU32_ReadUART3>
9d002d28:	240500c8 	li	a1,200

9d002d2c <.LVL174>:
		sscanf(buffer, "%f", &kitemp);
9d002d2c:	27a40010 	addiu	a0,sp,16
9d002d30:	26059a50 	addiu	a1,s0,-26032
9d002d34:	0f4026b8 	jal	9d009ae0 <_sscanf_cdfFnopuxX>
9d002d38:	27a600dc 	addiu	a2,sp,220

9d002d3c <.LVL175>:
		NU32_ReadUART3(buffer,BUF_SIZE);
9d002d3c:	27a40010 	addiu	a0,sp,16
9d002d40:	0f401eb1 	jal	9d007ac4 <NU32_ReadUART3>
9d002d44:	240500c8 	li	a1,200

9d002d48 <.LVL176>:
		sscanf(buffer, "%f", &kdtemp);
9d002d48:	27a40010 	addiu	a0,sp,16
9d002d4c:	26059a50 	addiu	a1,s0,-26032
9d002d50:	0f4026b8 	jal	9d009ae0 <_sscanf_cdfFnopuxX>
9d002d54:	27a600d8 	addiu	a2,sp,216

9d002d58 <.LVL177>:
		
		set_Pgains(kptemp, kitemp, kdtemp);
9d002d58:	8fa400e0 	lw	a0,224(sp)
9d002d5c:	8fa500dc 	lw	a1,220(sp)
9d002d60:	0f4021ef 	jal	9d0087bc <set_Pgains>
9d002d64:	8fa600d8 	lw	a2,216(sp)

9d002d68 <.LVL178>:
		
        sprintf(buffer,"%d\r\n", 1);
9d002d68:	27a40010 	addiu	a0,sp,16
9d002d6c:	3c059d01 	lui	a1,0x9d01
9d002d70:	24a59a34 	addiu	a1,a1,-26060
9d002d74:	0f402629 	jal	9d0098a4 <.LFE0>
9d002d78:	24060001 	li	a2,1

9d002d7c <.LVL179>:
        NU32_WriteUART3(buffer);
9d002d7c:	0f401ece 	jal	9d007b38 <NU32_WriteUART3>
9d002d80:	27a40010 	addiu	a0,sp,16

9d002d84 <.LBE12>:
  set_mode(0);
  makeWaveform();

  while(1)
  {
    NU32_ReadUART3(buffer,BUF_SIZE); // we expect the next character to be a menu command
9d002d84:	0b400a5c 	j	9d002970 <.LVL124+0x1c>
9d002d88:	27a40010 	addiu	a0,sp,16
        break;
      }

      case 'j': 
      {
        sprintf(buffer,"%f\r\n", get_Pkp());
9d002d8c:	0f4021fc 	jal	9d0087f0 <get_Pkp>
9d002d90:	3c109d01 	lui	s0,0x9d01

9d002d94 <.LVL181>:
9d002d94:	27a40010 	addiu	a0,sp,16
9d002d98:	26059a44 	addiu	a1,s0,-26044
9d002d9c:	0f402629 	jal	9d0098a4 <.LFE0>
9d002da0:	00403021 	move	a2,v0

9d002da4 <.LVL182>:
        NU32_WriteUART3(buffer);
9d002da4:	0f401ece 	jal	9d007b38 <NU32_WriteUART3>
9d002da8:	27a40010 	addiu	a0,sp,16

9d002dac <.LVL183>:
		sprintf(buffer,"%f\r\n", get_Pki());
9d002dac:	0f4021ff 	jal	9d0087fc <get_Pki>
9d002db0:	00000000 	nop

9d002db4 <.LVL184>:
9d002db4:	27a40010 	addiu	a0,sp,16
9d002db8:	26059a44 	addiu	a1,s0,-26044
9d002dbc:	0f402629 	jal	9d0098a4 <.LFE0>
9d002dc0:	00403021 	move	a2,v0

9d002dc4 <.LVL185>:
        NU32_WriteUART3(buffer);
9d002dc4:	0f401ece 	jal	9d007b38 <NU32_WriteUART3>
9d002dc8:	27a40010 	addiu	a0,sp,16

9d002dcc <.LVL186>:
		sprintf(buffer,"%f\r\n", get_Pkd());
9d002dcc:	0f402202 	jal	9d008808 <get_Pkd>
9d002dd0:	00000000 	nop

9d002dd4 <.LVL187>:
9d002dd4:	27a40010 	addiu	a0,sp,16
9d002dd8:	26059a44 	addiu	a1,s0,-26044
9d002ddc:	0f402629 	jal	9d0098a4 <.LFE0>
9d002de0:	00403021 	move	a2,v0

9d002de4 <.LVL188>:
        NU32_WriteUART3(buffer);
9d002de4:	0f401ece 	jal	9d007b38 <NU32_WriteUART3>
9d002de8:	27a40010 	addiu	a0,sp,16

9d002dec <.LVL189>:
        break;
9d002dec:	0b400a5c 	j	9d002970 <.LVL124+0x1c>
9d002df0:	27a40010 	addiu	a0,sp,16

9d002df4 <.LBB13>:
      }

      case 'k': 
      {
		int i = 0;
        set_mode(2);
9d002df4:	0f402794 	jal	9d009e50 <set_mode>
9d002df8:	24040002 	li	a0,2

9d002dfc <.LVL191>:
		set_Ieint(0);
9d002dfc:	0f401fa4 	jal	9d007e90 <set_Ieint>
9d002e00:	00002021 	move	a0,zero

9d002e04 <.LVL192>:
		StoringData = 1;
9d002e04:	24020001 	li	v0,1
9d002e08:	af828030 	sw	v0,-32720(gp)

		while (StoringData) {
9d002e0c:	8f828030 	lw	v0,-32720(gp)
9d002e10:	1440fffe 	bnez	v0,9d002e0c <.LVL192+0x8>
9d002e14:	3c059d01 	lui	a1,0x9d01
		  ;
		}

		sprintf(buffer,"%d\r\n", PLOTPTS);
9d002e18:	27a40010 	addiu	a0,sp,16
9d002e1c:	24a59a34 	addiu	a1,a1,-26060
9d002e20:	0f402629 	jal	9d0098a4 <.LFE0>
9d002e24:	24060064 	li	a2,100

9d002e28 <.LVL193>:
		NU32_WriteUART3(buffer);
9d002e28:	0f401ece 	jal	9d007b38 <NU32_WriteUART3>
9d002e2c:	27a40010 	addiu	a0,sp,16

9d002e30 <.LVL194>:

		for (i=0; i<PLOTPTS; i++) {
9d002e30:	00008021 	move	s0,zero
		  sprintf(buffer, "%d %d\r\n", ADCarray[i], REFarray[i]);
9d002e34:	3c15a000 	lui	s5,0xa000
9d002e38:	26b520f0 	addiu	s5,s5,8432
9d002e3c:	3c14a000 	lui	s4,0xa000
9d002e40:	26942280 	addiu	s4,s4,8832
9d002e44:	3c139d01 	lui	s3,0x9d01
9d002e48:	26739a54 	addiu	s3,s3,-26028
		}

		sprintf(buffer,"%d\r\n", PLOTPTS);
		NU32_WriteUART3(buffer);

		for (i=0; i<PLOTPTS; i++) {
9d002e4c:	24120064 	li	s2,100
		  sprintf(buffer, "%d %d\r\n", ADCarray[i], REFarray[i]);
9d002e50:	00101080 	sll	v0,s0,0x2
9d002e54:	00551821 	addu	v1,v0,s5
9d002e58:	8c660000 	lw	a2,0(v1)
9d002e5c:	00541021 	addu	v0,v0,s4
9d002e60:	8c470000 	lw	a3,0(v0)
9d002e64:	27a40010 	addiu	a0,sp,16
9d002e68:	0f402629 	jal	9d0098a4 <.LFE0>
9d002e6c:	02602821 	move	a1,s3

9d002e70 <.LVL196>:
		  NU32_WriteUART3(buffer);
9d002e70:	0f401ece 	jal	9d007b38 <NU32_WriteUART3>
9d002e74:	27a40010 	addiu	a0,sp,16

9d002e78 <.LVL197>:
		}

		sprintf(buffer,"%d\r\n", PLOTPTS);
		NU32_WriteUART3(buffer);

		for (i=0; i<PLOTPTS; i++) {
9d002e78:	26100001 	addiu	s0,s0,1
9d002e7c:	1612fff5 	bne	s0,s2,9d002e54 <.LVL194+0x24>
9d002e80:	00101080 	sll	v0,s0,0x2
9d002e84:	0b400a5c 	j	9d002970 <.LVL124+0x1c>
9d002e88:	27a40010 	addiu	a0,sp,16

9d002e8c <.LBB14>:
        break;
      }

	case 'l': 
      {
        int ang_temp = 0;
9d002e8c:	afa000d8 	sw	zero,216(sp)

        NU32_ReadUART3(buffer,BUF_SIZE);
9d002e90:	27a40010 	addiu	a0,sp,16
9d002e94:	0f401eb1 	jal	9d007ac4 <NU32_ReadUART3>
9d002e98:	240500c8 	li	a1,200

9d002e9c <.LVL200>:
		sscanf(buffer, "%d", &ang_temp);
9d002e9c:	27a40010 	addiu	a0,sp,16
9d002ea0:	3c029d01 	lui	v0,0x9d01
9d002ea4:	24459a4c 	addiu	a1,v0,-26036
9d002ea8:	0f4026b8 	jal	9d009ae0 <_sscanf_cdfFnopuxX>
9d002eac:	27a600d8 	addiu	a2,sp,216

9d002eb0 <.LVL201>:

		set_angle(ang_temp);
9d002eb0:	0f402211 	jal	9d008844 <set_angle>
9d002eb4:	8fa400d8 	lw	a0,216(sp)

9d002eb8 <.LVL202>:
		set_mode(3);
9d002eb8:	0f402794 	jal	9d009e50 <set_mode>
9d002ebc:	24040003 	li	a0,3

9d002ec0 <.LBE14>:
  set_mode(0);
  makeWaveform();

  while(1)
  {
    NU32_ReadUART3(buffer,BUF_SIZE); // we expect the next character to be a menu command
9d002ec0:	0b400a5c 	j	9d002970 <.LVL124+0x1c>
9d002ec4:	27a40010 	addiu	a0,sp,16
        break;
      }

      case 'r': 
      {
		sprintf(buffer,"%d\r\n", get_mode());
9d002ec8:	0f402791 	jal	9d009e44 <get_mode>
9d002ecc:	00000000 	nop

9d002ed0 <.LVL204>:
9d002ed0:	27a40010 	addiu	a0,sp,16
9d002ed4:	3c059d01 	lui	a1,0x9d01
9d002ed8:	24a59a34 	addiu	a1,a1,-26060
9d002edc:	0f402629 	jal	9d0098a4 <.LFE0>
9d002ee0:	00403021 	move	a2,v0

9d002ee4 <.LVL205>:
        NU32_WriteUART3(buffer);
9d002ee4:	0f401ece 	jal	9d007b38 <NU32_WriteUART3>
9d002ee8:	27a40010 	addiu	a0,sp,16

9d002eec <.LVL206>:
        break;
9d002eec:	0b400a5c 	j	9d002970 <.LVL124+0x1c>
9d002ef0:	27a40010 	addiu	a0,sp,16

9d002ef4 <.LBB15>:
      }

	  case 'm': 
      {
		int i = 0;
		int N = 0;
9d002ef4:	afa000dc 	sw	zero,220(sp)
		float reftest = 0;
9d002ef8:	00001021 	move	v0,zero
9d002efc:	afa200d8 	sw	v0,216(sp)
        NU32_ReadUART3(buffer,BUF_SIZE);
9d002f00:	27a40010 	addiu	a0,sp,16
9d002f04:	0f401eb1 	jal	9d007ac4 <NU32_ReadUART3>
9d002f08:	240500c8 	li	a1,200

9d002f0c <.LVL208>:
		sscanf(buffer, "%d", &N);
9d002f0c:	27a40010 	addiu	a0,sp,16
9d002f10:	3c029d01 	lui	v0,0x9d01
9d002f14:	24459a4c 	addiu	a1,v0,-26036
9d002f18:	0f4026b8 	jal	9d009ae0 <_sscanf_cdfFnopuxX>
9d002f1c:	27a600dc 	addiu	a2,sp,220

9d002f20 <.LVL209>:
		TrajLen = N;
9d002f20:	8fa200dc 	lw	v0,220(sp)
9d002f24:	af82802c 	sw	v0,-32724(gp)

		for (i=0; i<N; i++) {
9d002f28:	18400019 	blez	v0,9d002f90 <.LVL212+0x3c>
9d002f2c:	27a40010 	addiu	a0,sp,16
9d002f30:	00008021 	move	s0,zero

		  NU32_ReadUART3(buffer,BUF_SIZE);
		  sscanf(buffer, "%f", &reftest);
9d002f34:	3c129d01 	lui	s2,0x9d01
9d002f38:	26529a50 	addiu	s2,s2,-26032
		sscanf(buffer, "%d", &N);
		TrajLen = N;

		for (i=0; i<N; i++) {

		  NU32_ReadUART3(buffer,BUF_SIZE);
9d002f3c:	0f401eb1 	jal	9d007ac4 <NU32_ReadUART3>
9d002f40:	240500c8 	li	a1,200

9d002f44 <.LVL211>:
		  sscanf(buffer, "%f", &reftest);
9d002f44:	27a40010 	addiu	a0,sp,16
9d002f48:	02402821 	move	a1,s2
9d002f4c:	0f4026b8 	jal	9d009ae0 <_sscanf_cdfFnopuxX>
9d002f50:	27a600d8 	addiu	a2,sp,216

9d002f54 <.LVL212>:
		  
		  if(i < REFLEN) {
9d002f54:	2a0203e8 	slti	v0,s0,1000
9d002f58:	10400007 	beqz	v0,9d002f78 <.LVL212+0x24>
9d002f5c:	240203e8 	li	v0,1000
			Trajectory[i] = reftest;
9d002f60:	00101080 	sll	v0,s0,0x2
9d002f64:	00511021 	addu	v0,v0,s1
9d002f68:	8fa300d8 	lw	v1,216(sp)
9d002f6c:	ac430000 	sw	v1,0(v0)
9d002f70:	0b400be0 	j	9d002f80 <.LVL212+0x2c>
9d002f74:	26100001 	addiu	s0,s0,1
		  }
		  else {
			TrajLen = REFLEN;
9d002f78:	af82802c 	sw	v0,-32724(gp)
		float reftest = 0;
        NU32_ReadUART3(buffer,BUF_SIZE);
		sscanf(buffer, "%d", &N);
		TrajLen = N;

		for (i=0; i<N; i++) {
9d002f7c:	26100001 	addiu	s0,s0,1
9d002f80:	8fa200dc 	lw	v0,220(sp)
9d002f84:	0202102a 	slt	v0,s0,v0
9d002f88:	1440ffec 	bnez	v0,9d002f3c <.LVL209+0x1c>
9d002f8c:	27a40010 	addiu	a0,sp,16
		  else {
			TrajLen = REFLEN;
		  }
		}

		sprintf(buffer,"%d\r\n", 1);
9d002f90:	3c059d01 	lui	a1,0x9d01
9d002f94:	24a59a34 	addiu	a1,a1,-26060
9d002f98:	0f402629 	jal	9d0098a4 <.LFE0>
9d002f9c:	24060001 	li	a2,1

9d002fa0 <.LVL215>:
        NU32_WriteUART3(buffer);
9d002fa0:	0f401ece 	jal	9d007b38 <NU32_WriteUART3>
9d002fa4:	27a40010 	addiu	a0,sp,16

9d002fa8 <.LBE15>:
  set_mode(0);
  makeWaveform();

  while(1)
  {
    NU32_ReadUART3(buffer,BUF_SIZE); // we expect the next character to be a menu command
9d002fa8:	0b400a5c 	j	9d002970 <.LVL124+0x1c>
9d002fac:	27a40010 	addiu	a0,sp,16

9d002fb0 <.LBB16>:


	  case 'n': 
      {
		int i = 0;
		int N = 0;
9d002fb0:	afa000dc 	sw	zero,220(sp)
		float reftest = 0;
9d002fb4:	00001021 	move	v0,zero
9d002fb8:	afa200d8 	sw	v0,216(sp)
        NU32_ReadUART3(buffer,BUF_SIZE);
9d002fbc:	27a40010 	addiu	a0,sp,16
9d002fc0:	0f401eb1 	jal	9d007ac4 <NU32_ReadUART3>
9d002fc4:	240500c8 	li	a1,200

9d002fc8 <.LVL218>:
		sscanf(buffer, "%d", &N);
9d002fc8:	27a40010 	addiu	a0,sp,16
9d002fcc:	3c029d01 	lui	v0,0x9d01
9d002fd0:	24459a4c 	addiu	a1,v0,-26036
9d002fd4:	0f4026b8 	jal	9d009ae0 <_sscanf_cdfFnopuxX>
9d002fd8:	27a600dc 	addiu	a2,sp,220

9d002fdc <.LVL219>:
		TrajLen = N;
9d002fdc:	8fa200dc 	lw	v0,220(sp)
9d002fe0:	af82802c 	sw	v0,-32724(gp)

		for (i=0; i<N; i++) {
9d002fe4:	18400019 	blez	v0,9d00304c <.LVL222+0x3c>
9d002fe8:	27a40010 	addiu	a0,sp,16
9d002fec:	00008021 	move	s0,zero

		  NU32_ReadUART3(buffer,BUF_SIZE);
		  sscanf(buffer, "%f", &reftest);
9d002ff0:	3c129d01 	lui	s2,0x9d01
9d002ff4:	26529a50 	addiu	s2,s2,-26032
		sscanf(buffer, "%d", &N);
		TrajLen = N;

		for (i=0; i<N; i++) {

		  NU32_ReadUART3(buffer,BUF_SIZE);
9d002ff8:	0f401eb1 	jal	9d007ac4 <NU32_ReadUART3>
9d002ffc:	240500c8 	li	a1,200

9d003000 <.LVL221>:
		  sscanf(buffer, "%f", &reftest);
9d003000:	27a40010 	addiu	a0,sp,16
9d003004:	02402821 	move	a1,s2
9d003008:	0f4026b8 	jal	9d009ae0 <_sscanf_cdfFnopuxX>
9d00300c:	27a600d8 	addiu	a2,sp,216

9d003010 <.LVL222>:
		  
		  if(i < REFLEN) {
9d003010:	2a0203e8 	slti	v0,s0,1000
9d003014:	10400007 	beqz	v0,9d003034 <.LVL222+0x24>
9d003018:	240203e8 	li	v0,1000
			Trajectory[i] = reftest;
9d00301c:	00101080 	sll	v0,s0,0x2
9d003020:	00511021 	addu	v0,v0,s1
9d003024:	8fa300d8 	lw	v1,216(sp)
9d003028:	ac430000 	sw	v1,0(v0)
9d00302c:	0b400c0f 	j	9d00303c <.LVL222+0x2c>
9d003030:	26100001 	addiu	s0,s0,1
		  }
		  else {
			TrajLen = REFLEN;
9d003034:	af82802c 	sw	v0,-32724(gp)
		float reftest = 0;
        NU32_ReadUART3(buffer,BUF_SIZE);
		sscanf(buffer, "%d", &N);
		TrajLen = N;

		for (i=0; i<N; i++) {
9d003038:	26100001 	addiu	s0,s0,1
9d00303c:	8fa200dc 	lw	v0,220(sp)
9d003040:	0202102a 	slt	v0,s0,v0
9d003044:	1440ffec 	bnez	v0,9d002ff8 <.LVL219+0x1c>
9d003048:	27a40010 	addiu	a0,sp,16
		  else {
			TrajLen = REFLEN;
		  }
		}

		sprintf(buffer,"%d\r\n", 1);
9d00304c:	3c059d01 	lui	a1,0x9d01
9d003050:	24a59a34 	addiu	a1,a1,-26060
9d003054:	0f402629 	jal	9d0098a4 <.LFE0>
9d003058:	24060001 	li	a2,1

9d00305c <.LVL225>:
        NU32_WriteUART3(buffer);
9d00305c:	0f401ece 	jal	9d007b38 <NU32_WriteUART3>
9d003060:	27a40010 	addiu	a0,sp,16

9d003064 <.LBE16>:
  set_mode(0);
  makeWaveform();

  while(1)
  {
    NU32_ReadUART3(buffer,BUF_SIZE); // we expect the next character to be a menu command
9d003064:	0b400a5c 	j	9d002970 <.LVL124+0x1c>
9d003068:	27a40010 	addiu	a0,sp,16

      case 'o':
      {
		int i = 0;

		set_mode(4);
9d00306c:	0f402794 	jal	9d009e50 <set_mode>
9d003070:	24040004 	li	a0,4

9d003074 <.LVL228>:
		StoringData = 1;
9d003074:	24020001 	li	v0,1
9d003078:	af828030 	sw	v0,-32720(gp)

		while (StoringData) {
9d00307c:	8f828030 	lw	v0,-32720(gp)
9d003080:	1440fffe 	bnez	v0,9d00307c <.LVL228+0x8>
9d003084:	00000000 	nop
		  ;
		}

		sprintf(buffer,"%d\r\n", TrajLen);
9d003088:	8f86802c 	lw	a2,-32724(gp)
9d00308c:	27a40010 	addiu	a0,sp,16
9d003090:	3c059d01 	lui	a1,0x9d01
9d003094:	0f402629 	jal	9d0098a4 <.LFE0>
9d003098:	24a59a34 	addiu	a1,a1,-26060

9d00309c <.LVL229>:
		NU32_WriteUART3(buffer);
9d00309c:	0f401ece 	jal	9d007b38 <NU32_WriteUART3>
9d0030a0:	27a40010 	addiu	a0,sp,16

9d0030a4 <.LVL230>:

		for (i=0; i<TrajLen; i++) {
9d0030a4:	8f82802c 	lw	v0,-32724(gp)
9d0030a8:	1840fe30 	blez	v0,9d00296c <.LVL124+0x18>
9d0030ac:	3c129d01 	lui	s2,0x9d01
9d0030b0:	00008021 	move	s0,zero
		  sprintf(buffer, "%f %f\r\n", Trajectory[i], Path[i]);
9d0030b4:	26529a5c 	addiu	s2,s2,-26020
9d0030b8:	00101080 	sll	v0,s0,0x2
9d0030bc:	00511821 	addu	v1,v0,s1
9d0030c0:	8c660000 	lw	a2,0(v1)
9d0030c4:	00561021 	addu	v0,v0,s6
9d0030c8:	8c470000 	lw	a3,0(v0)
9d0030cc:	27a40010 	addiu	a0,sp,16
9d0030d0:	0f402629 	jal	9d0098a4 <.LFE0>
9d0030d4:	02402821 	move	a1,s2

9d0030d8 <.LVL232>:
		  NU32_WriteUART3(buffer);
9d0030d8:	0f401ece 	jal	9d007b38 <NU32_WriteUART3>
9d0030dc:	27a40010 	addiu	a0,sp,16

9d0030e0 <.LVL233>:
		}

		sprintf(buffer,"%d\r\n", TrajLen);
		NU32_WriteUART3(buffer);

		for (i=0; i<TrajLen; i++) {
9d0030e0:	26100001 	addiu	s0,s0,1
9d0030e4:	8f82802c 	lw	v0,-32724(gp)
9d0030e8:	0202102a 	slt	v0,s0,v0
9d0030ec:	1440fff3 	bnez	v0,9d0030bc <.LVL230+0x18>
9d0030f0:	00101080 	sll	v0,s0,0x2
9d0030f4:	0b400a5c 	j	9d002970 <.LVL124+0x1c>
9d0030f8:	27a40010 	addiu	a0,sp,16
        break;
	  }

      case 'p':
      { 
        __builtin_disable_interrupts();
9d0030fc:	41626000 	di	v0
9d003100:	000000c0 	ehb
		dir = 0;
9d003104:	af808028 	sw	zero,-32728(gp)
		pwm = 0;
9d003108:	af808024 	sw	zero,-32732(gp)

		set_mode(0);
9d00310c:	0f402794 	jal	9d009e50 <set_mode>
9d003110:	00002021 	move	a0,zero

9d003114 <.LVL236>:
		__builtin_enable_interrupts();
9d003114:	41626020 	ei	v0

		sprintf(buffer,"%d\r\n", get_mode());
9d003118:	0f402791 	jal	9d009e44 <get_mode>
9d00311c:	00000000 	nop

9d003120 <.LVL237>:
9d003120:	27a40010 	addiu	a0,sp,16
9d003124:	3c059d01 	lui	a1,0x9d01
9d003128:	24a59a34 	addiu	a1,a1,-26060
9d00312c:	0f402629 	jal	9d0098a4 <.LFE0>
9d003130:	00403021 	move	a2,v0

9d003134 <.LVL238>:
        NU32_WriteUART3(buffer);
9d003134:	0f401ece 	jal	9d007b38 <NU32_WriteUART3>
9d003138:	27a40010 	addiu	a0,sp,16

9d00313c <.LVL239>:
        break;
9d00313c:	0b400a5c 	j	9d002970 <.LVL124+0x1c>
9d003140:	27a40010 	addiu	a0,sp,16
      }

      case 'q':
      {
        __builtin_disable_interrupts();
9d003144:	41626000 	di	v0
9d003148:	000000c0 	ehb
		dir = 0;
9d00314c:	af808028 	sw	zero,-32728(gp)
		pwm = 0;
9d003150:	af808024 	sw	zero,-32732(gp)

		set_mode(0);
9d003154:	0f402794 	jal	9d009e50 <set_mode>
9d003158:	00002021 	move	a0,zero

9d00315c <.LVL240>:
		__builtin_enable_interrupts();
9d00315c:	41626020 	ei	v0
        break;
9d003160:	0b400a5c 	j	9d002970 <.LVL124+0x1c>
9d003164:	27a40010 	addiu	a0,sp,16

9d003168 <.LBB18>:
      }

      case 'x':   
      {
        int n = 0;
9d003168:	afa000dc 	sw	zero,220(sp)
		int m = 0;
9d00316c:	afa000d8 	sw	zero,216(sp)
		int x= 0;
        NU32_ReadUART3(buffer,BUF_SIZE);
9d003170:	27a40010 	addiu	a0,sp,16
9d003174:	0f401eb1 	jal	9d007ac4 <NU32_ReadUART3>
9d003178:	240500c8 	li	a1,200

9d00317c <.LVL242>:
		sscanf(buffer, "%d", &n);
9d00317c:	27a40010 	addiu	a0,sp,16
9d003180:	3c029d01 	lui	v0,0x9d01
9d003184:	24459a4c 	addiu	a1,v0,-26036
9d003188:	0f4026b8 	jal	9d009ae0 <_sscanf_cdfFnopuxX>
9d00318c:	27a600dc 	addiu	a2,sp,220

9d003190 <.LVL243>:
        NU32_ReadUART3(buffer,BUF_SIZE);
9d003190:	27a40010 	addiu	a0,sp,16
9d003194:	0f401eb1 	jal	9d007ac4 <NU32_ReadUART3>
9d003198:	240500c8 	li	a1,200

9d00319c <.LVL244>:
		sscanf(buffer, "%d", &m);
9d00319c:	27a40010 	addiu	a0,sp,16
9d0031a0:	3c029d01 	lui	v0,0x9d01
9d0031a4:	24459a4c 	addiu	a1,v0,-26036
9d0031a8:	0f4026b8 	jal	9d009ae0 <_sscanf_cdfFnopuxX>
9d0031ac:	27a600d8 	addiu	a2,sp,216

9d0031b0 <.LVL245>:

		x = n + m;
        sprintf(buffer,"%d\r\n", x);
9d0031b0:	27a40010 	addiu	a0,sp,16
9d0031b4:	3c059d01 	lui	a1,0x9d01
9d0031b8:	24a59a34 	addiu	a1,a1,-26060
9d0031bc:	8fa200d8 	lw	v0,216(sp)
9d0031c0:	8fa600dc 	lw	a2,220(sp)
9d0031c4:	0f402629 	jal	9d0098a4 <.LFE0>
9d0031c8:	00c23021 	addu	a2,a2,v0

9d0031cc <.LVL247>:
        NU32_WriteUART3(buffer);
9d0031cc:	0f401ece 	jal	9d007b38 <NU32_WriteUART3>
9d0031d0:	27a40010 	addiu	a0,sp,16

9d0031d4 <.LBE18>:
  set_mode(0);
  makeWaveform();

  while(1)
  {
    NU32_ReadUART3(buffer,BUF_SIZE); // we expect the next character to be a menu command
9d0031d4:	0b400a5c 	j	9d002970 <.LVL124+0x1c>
9d0031d8:	27a40010 	addiu	a0,sp,16
        break;
      }

      default:
      {
        NU32_LED2 = 0;  // turn on LED2 to indicate an error
9d0031dc:	92e26160 	lbu	v0,24928(s7)
9d0031e0:	7c020844 	ins	v0,zero,0x1,0x1
9d0031e4:	a2e26160 	sb	v0,24928(s7)
        break;
9d0031e8:	0b400a5c 	j	9d002970 <.LVL124+0x1c>
9d0031ec:	27a40010 	addiu	a0,sp,16

9d0031f0 <makeWaveform>:
}

void makeWaveform(void) {
  int i = 0;
  int center = 0, A = 200;
  for (i = 0; i < NUMSAMPS; ++i) {
9d0031f0:	00001021 	move	v0,zero
    if ((i < NUMSAMPS/2)) {
	  Waveform[i] = center + A;
	}
	else {
	  Waveform[i] = center - A;
9d0031f4:	3c05a000 	lui	a1,0xa000
9d0031f8:	24a52028 	addiu	a1,a1,8232
9d0031fc:	2407ff38 	li	a3,-200
void makeWaveform(void) {
  int i = 0;
  int center = 0, A = 200;
  for (i = 0; i < NUMSAMPS; ++i) {
    if ((i < NUMSAMPS/2)) {
	  Waveform[i] = center + A;
9d003200:	240600c8 	li	a2,200
}

void makeWaveform(void) {
  int i = 0;
  int center = 0, A = 200;
  for (i = 0; i < NUMSAMPS; ++i) {
9d003204:	24040032 	li	a0,50
    if ((i < NUMSAMPS/2)) {
9d003208:	28430019 	slti	v1,v0,25
9d00320c:	10600005 	beqz	v1,9d003224 <makeWaveform+0x34>
9d003210:	00021880 	sll	v1,v0,0x2
	  Waveform[i] = center + A;
9d003214:	00651821 	addu	v1,v1,a1
9d003218:	ac660000 	sw	a2,0(v1)
9d00321c:	0b400c8c 	j	9d003230 <makeWaveform+0x40>
9d003220:	24420001 	addiu	v0,v0,1
	}
	else {
	  Waveform[i] = center - A;
9d003224:	00651821 	addu	v1,v1,a1
9d003228:	ac670000 	sw	a3,0(v1)
}

void makeWaveform(void) {
  int i = 0;
  int center = 0, A = 200;
  for (i = 0; i < NUMSAMPS; ++i) {
9d00322c:	24420001 	addiu	v0,v0,1
9d003230:	5444fff6 	bnel	v0,a0,9d00320c <makeWaveform+0x1c>
9d003234:	28430019 	slti	v1,v0,25
	}
	else {
	  Waveform[i] = center - A;
	}
  }
}
9d003238:	03e00008 	jr	ra
9d00323c:	00000000 	nop

Disassembly of section .text._vfprintf_cdfFnopuxX:

9d003240 <_vfprintf_cdfFnopuxX>:
9d003240:	27bdffa0 	addiu	sp,sp,-96
9d003244:	afbf005c 	sw	ra,92(sp)
9d003248:	afbe0058 	sw	s8,88(sp)
9d00324c:	afb70054 	sw	s7,84(sp)
9d003250:	afb60050 	sw	s6,80(sp)
9d003254:	afb5004c 	sw	s5,76(sp)
9d003258:	afb40048 	sw	s4,72(sp)
9d00325c:	afb30044 	sw	s3,68(sp)
9d003260:	afb20040 	sw	s2,64(sp)
9d003264:	afb1003c 	sw	s1,60(sp)
9d003268:	afb00038 	sw	s0,56(sp)
9d00326c:	00809021 	move	s2,a0
9d003270:	00a08821 	move	s1,a1
9d003274:	afa60068 	sw	a2,104(sp)
9d003278:	00001021 	move	v0,zero
9d00327c:	afa20024 	sw	v0,36(sp)
9d003280:	00008021 	move	s0,zero
9d003284:	82240000 	lb	a0,0(s1)
9d003288:	26330001 	addiu	s3,s1,1
9d00328c:	10800028 	beqz	a0,9d003330 <_vfprintf_cdfFnopuxX+0xf0>
9d003290:	a3a40016 	sb	a0,22(sp)
9d003294:	24020025 	li	v0,37
9d003298:	1482001b 	bne	a0,v0,9d003308 <_vfprintf_cdfFnopuxX+0xc8>
9d00329c:	26220002 	addiu	v0,s1,2
9d0032a0:	0000b021 	move	s6,zero
9d0032a4:	2404002b 	li	a0,43
9d0032a8:	2405002d 	li	a1,45
9d0032ac:	24070030 	li	a3,48
9d0032b0:	24060020 	li	a2,32
9d0032b4:	8057ffff 	lb	s7,-1(v0)
9d0032b8:	12e4000c 	beq	s7,a0,9d0032ec <_vfprintf_cdfFnopuxX+0xac>
9d0032bc:	2451ffff 	addiu	s1,v0,-1
9d0032c0:	2ae3002c 	slti	v1,s7,44
9d0032c4:	1460000c 	bnez	v1,9d0032f8 <_vfprintf_cdfFnopuxX+0xb8>
9d0032c8:	00000000 	nop
9d0032cc:	52e501df 	beql	s7,a1,9d003a4c <_vfprintf_cdfFnopuxX+0x80c>
9d0032d0:	36d60008 	ori	s6,s6,0x8
9d0032d4:	16e70023 	bne	s7,a3,9d003364 <_vfprintf_cdfFnopuxX+0x124>
9d0032d8:	24420001 	addiu	v0,v0,1
9d0032dc:	36d60004 	ori	s6,s6,0x4
9d0032e0:	8057ffff 	lb	s7,-1(v0)
9d0032e4:	16e4fff6 	bne	s7,a0,9d0032c0 <_vfprintf_cdfFnopuxX+0x80>
9d0032e8:	2451ffff 	addiu	s1,v0,-1
9d0032ec:	36d60002 	ori	s6,s6,0x2
9d0032f0:	0b400cb8 	j	9d0032e0 <_vfprintf_cdfFnopuxX+0xa0>
9d0032f4:	24420001 	addiu	v0,v0,1
9d0032f8:	16e6001a 	bne	s7,a2,9d003364 <_vfprintf_cdfFnopuxX+0x124>
9d0032fc:	24420001 	addiu	v0,v0,1
9d003300:	0b400cb8 	j	9d0032e0 <_vfprintf_cdfFnopuxX+0xa0>
9d003304:	36d60001 	ori	s6,s6,0x1
9d003308:	0f402135 	jal	9d0084d4 <.LFE0>
9d00330c:	02402821 	move	a1,s2
9d003310:	2403ffff 	li	v1,-1
9d003314:	1043ffdb 	beq	v0,v1,9d003284 <_vfprintf_cdfFnopuxX+0x44>
9d003318:	02608821 	move	s1,s3
9d00331c:	26100001 	addiu	s0,s0,1
9d003320:	82640000 	lb	a0,0(s3)
9d003324:	26330001 	addiu	s3,s1,1
9d003328:	1480ffda 	bnez	a0,9d003294 <_vfprintf_cdfFnopuxX+0x54>
9d00332c:	a3a40016 	sb	a0,22(sp)
9d003330:	02001021 	move	v0,s0
9d003334:	8fbf005c 	lw	ra,92(sp)
9d003338:	8fbe0058 	lw	s8,88(sp)
9d00333c:	8fb70054 	lw	s7,84(sp)
9d003340:	8fb60050 	lw	s6,80(sp)
9d003344:	8fb5004c 	lw	s5,76(sp)
9d003348:	8fb40048 	lw	s4,72(sp)
9d00334c:	8fb30044 	lw	s3,68(sp)
9d003350:	8fb20040 	lw	s2,64(sp)
9d003354:	8fb1003c 	lw	s1,60(sp)
9d003358:	8fb00038 	lw	s0,56(sp)
9d00335c:	03e00008 	jr	ra
9d003360:	27bd0060 	addiu	sp,sp,96
9d003364:	3c039d01 	lui	v1,0x9d01
9d003368:	24638cc9 	addiu	v1,v1,-29495
9d00336c:	00771021 	addu	v0,v1,s7
9d003370:	90420000 	lbu	v0,0(v0)
9d003374:	32c40002 	andi	a0,s6,0x2
9d003378:	32c3fffe 	andi	v1,s6,0xfffe
9d00337c:	0064b00b 	movn	s6,v1,a0
9d003380:	32c40008 	andi	a0,s6,0x8
9d003384:	32c3fffb 	andi	v1,s6,0xfffb
9d003388:	30420004 	andi	v0,v0,0x4
9d00338c:	02202821 	move	a1,s1
9d003390:	104001b0 	beqz	v0,9d003a54 <_vfprintf_cdfFnopuxX+0x814>
9d003394:	0064b00b 	movn	s6,v1,a0
9d003398:	02e01821 	move	v1,s7
9d00339c:	0b400cea 	j	9d0033a8 <_vfprintf_cdfFnopuxX+0x168>
9d0033a0:	0000b821 	move	s7,zero
9d0033a4:	00401821 	move	v1,v0
9d0033a8:	26310001 	addiu	s1,s1,1
9d0033ac:	82220000 	lb	v0,0(s1)
9d0033b0:	00172840 	sll	a1,s7,0x1
9d0033b4:	0017b8c0 	sll	s7,s7,0x3
9d0033b8:	3c069d01 	lui	a2,0x9d01
9d0033bc:	24c68cc9 	addiu	a2,a2,-29495
9d0033c0:	00c22021 	addu	a0,a2,v0
9d0033c4:	90840000 	lbu	a0,0(a0)
9d0033c8:	00b7b821 	addu	s7,a1,s7
9d0033cc:	02e3b821 	addu	s7,s7,v1
9d0033d0:	30840004 	andi	a0,a0,0x4
9d0033d4:	1480fff3 	bnez	a0,9d0033a4 <_vfprintf_cdfFnopuxX+0x164>
9d0033d8:	26f7ffd0 	addiu	s7,s7,-48
9d0033dc:	2403002e 	li	v1,46
9d0033e0:	504301a3 	beql	v0,v1,9d003a70 <_vfprintf_cdfFnopuxX+0x830>
9d0033e4:	82220001 	lb	v0,1(s1)
9d0033e8:	36d61000 	ori	s6,s6,0x1000
9d0033ec:	00009821 	move	s3,zero
9d0033f0:	24060010 	li	a2,16
9d0033f4:	34058000 	li	a1,0x8000
9d0033f8:	304300ff 	andi	v1,v0,0xff
9d0033fc:	2c640079 	sltiu	a0,v1,121
9d003400:	1080016e 	beqz	a0,9d0039bc <_vfprintf_cdfFnopuxX+0x77c>
9d003404:	26310001 	addiu	s1,s1,1
9d003408:	00031880 	sll	v1,v1,0x2
9d00340c:	3c079d00 	lui	a3,0x9d00
9d003410:	24e73424 	addiu	a3,a3,13348
9d003414:	00e31821 	addu	v1,a3,v1
9d003418:	8c630000 	lw	v1,0(v1)
9d00341c:	00600008 	jr	v1
9d003420:	00000000 	nop
9d003424:	9d003330 	0x9d003330
9d003428:	9d0039bc 	0x9d0039bc
9d00342c:	9d0039bc 	0x9d0039bc
9d003430:	9d0039bc 	0x9d0039bc
9d003434:	9d0039bc 	0x9d0039bc
9d003438:	9d0039bc 	0x9d0039bc
9d00343c:	9d0039bc 	0x9d0039bc
9d003440:	9d0039bc 	0x9d0039bc
9d003444:	9d0039bc 	0x9d0039bc
9d003448:	9d0039bc 	0x9d0039bc
9d00344c:	9d0039bc 	0x9d0039bc
9d003450:	9d0039bc 	0x9d0039bc
9d003454:	9d0039bc 	0x9d0039bc
9d003458:	9d0039bc 	0x9d0039bc
9d00345c:	9d0039bc 	0x9d0039bc
9d003460:	9d0039bc 	0x9d0039bc
9d003464:	9d0039bc 	0x9d0039bc
9d003468:	9d0039bc 	0x9d0039bc
9d00346c:	9d0039bc 	0x9d0039bc
9d003470:	9d0039bc 	0x9d0039bc
9d003474:	9d0039bc 	0x9d0039bc
9d003478:	9d0039bc 	0x9d0039bc
9d00347c:	9d0039bc 	0x9d0039bc
9d003480:	9d0039bc 	0x9d0039bc
9d003484:	9d0039bc 	0x9d0039bc
9d003488:	9d0039bc 	0x9d0039bc
9d00348c:	9d0039bc 	0x9d0039bc
9d003490:	9d0039bc 	0x9d0039bc
9d003494:	9d0039bc 	0x9d0039bc
9d003498:	9d0039bc 	0x9d0039bc
9d00349c:	9d0039bc 	0x9d0039bc
9d0034a0:	9d0039bc 	0x9d0039bc
9d0034a4:	9d0039bc 	0x9d0039bc
9d0034a8:	9d0039bc 	0x9d0039bc
9d0034ac:	9d0039bc 	0x9d0039bc
9d0034b0:	9d0039bc 	0x9d0039bc
9d0034b4:	9d0039bc 	0x9d0039bc
9d0034b8:	9d0039bc 	0x9d0039bc
9d0034bc:	9d0039bc 	0x9d0039bc
9d0034c0:	9d0039bc 	0x9d0039bc
9d0034c4:	9d0039bc 	0x9d0039bc
9d0034c8:	9d0039bc 	0x9d0039bc
9d0034cc:	9d0039bc 	0x9d0039bc
9d0034d0:	9d0039bc 	0x9d0039bc
9d0034d4:	9d0039bc 	0x9d0039bc
9d0034d8:	9d0039bc 	0x9d0039bc
9d0034dc:	9d0039bc 	0x9d0039bc
9d0034e0:	9d0039bc 	0x9d0039bc
9d0034e4:	9d0039bc 	0x9d0039bc
9d0034e8:	9d0039bc 	0x9d0039bc
9d0034ec:	9d0039bc 	0x9d0039bc
9d0034f0:	9d0039bc 	0x9d0039bc
9d0034f4:	9d0039bc 	0x9d0039bc
9d0034f8:	9d0039bc 	0x9d0039bc
9d0034fc:	9d0039bc 	0x9d0039bc
9d003500:	9d0039bc 	0x9d0039bc
9d003504:	9d0039bc 	0x9d0039bc
9d003508:	9d0039bc 	0x9d0039bc
9d00350c:	9d0039bc 	0x9d0039bc
9d003510:	9d0039bc 	0x9d0039bc
9d003514:	9d0039bc 	0x9d0039bc
9d003518:	9d0039bc 	0x9d0039bc
9d00351c:	9d0039bc 	0x9d0039bc
9d003520:	9d0039bc 	0x9d0039bc
9d003524:	9d0039bc 	0x9d0039bc
9d003528:	9d0039bc 	0x9d0039bc
9d00352c:	9d0039bc 	0x9d0039bc
9d003530:	9d0039bc 	0x9d0039bc
9d003534:	9d0039bc 	0x9d0039bc
9d003538:	9d0039bc 	0x9d0039bc
9d00353c:	9d0039bc 	0x9d0039bc
9d003540:	9d0039bc 	0x9d0039bc
9d003544:	9d0039bc 	0x9d0039bc
9d003548:	9d0039bc 	0x9d0039bc
9d00354c:	9d0039bc 	0x9d0039bc
9d003550:	9d0039bc 	0x9d0039bc
9d003554:	9d0039bc 	0x9d0039bc
9d003558:	9d0039bc 	0x9d0039bc
9d00355c:	9d0039bc 	0x9d0039bc
9d003560:	9d0039bc 	0x9d0039bc
9d003564:	9d0039bc 	0x9d0039bc
9d003568:	9d0039bc 	0x9d0039bc
9d00356c:	9d0039bc 	0x9d0039bc
9d003570:	9d0039bc 	0x9d0039bc
9d003574:	9d0039bc 	0x9d0039bc
9d003578:	9d0039bc 	0x9d0039bc
9d00357c:	9d0039bc 	0x9d0039bc
9d003580:	9d0039bc 	0x9d0039bc
9d003584:	9d003a40 	0x9d003a40
9d003588:	9d0039bc 	0x9d0039bc
9d00358c:	9d0039bc 	0x9d0039bc
9d003590:	9d0039bc 	0x9d0039bc
9d003594:	9d0039bc 	0x9d0039bc
9d003598:	9d0039bc 	0x9d0039bc
9d00359c:	9d0039bc 	0x9d0039bc
9d0035a0:	9d0039bc 	0x9d0039bc
9d0035a4:	9d0039bc 	0x9d0039bc
9d0035a8:	9d0039bc 	0x9d0039bc
9d0035ac:	9d0039bc 	0x9d0039bc
9d0035b0:	9d0039e4 	0x9d0039e4
9d0035b4:	9d0039dc 	0x9d0039dc
9d0035b8:	9d0039bc 	0x9d0039bc
9d0035bc:	9d0039cc 	0x9d0039cc
9d0035c0:	9d0039bc 	0x9d0039bc
9d0035c4:	9d0039bc 	0x9d0039bc
9d0035c8:	9d0039dc 	0x9d0039dc
9d0035cc:	9d0039bc 	0x9d0039bc
9d0035d0:	9d0039bc 	0x9d0039bc
9d0035d4:	9d003998 	0x9d003998
9d0035d8:	9d0039bc 	0x9d0039bc
9d0035dc:	9d0039bc 	0x9d0039bc
9d0035e0:	9d003988 	0x9d003988
9d0035e4:	9d003a40 	0x9d003a40
9d0035e8:	9d0039bc 	0x9d0039bc
9d0035ec:	9d0039bc 	0x9d0039bc
9d0035f0:	9d003898 	0x9d003898
9d0035f4:	9d0039bc 	0x9d0039bc
9d0035f8:	9d003734 	0x9d003734
9d0035fc:	9d0039bc 	0x9d0039bc
9d003600:	9d0039bc 	0x9d0039bc
9d003604:	9d003608 	0x9d003608
9d003608:	24020078 	li	v0,120
9d00360c:	a3a20016 	sb	v0,22(sp)
9d003610:	36d60080 	ori	s6,s6,0x80
9d003614:	32c20700 	andi	v0,s6,0x700
9d003618:	1040004d 	beqz	v0,9d003750 <_vfprintf_cdfFnopuxX+0x510>
9d00361c:	32c200c0 	andi	v0,s6,0xc0
9d003620:	32c41000 	andi	a0,s6,0x1000
9d003624:	32c20010 	andi	v0,s6,0x10
9d003628:	24030006 	li	v1,6
9d00362c:	104001fd 	beqz	v0,9d003e24 <_vfprintf_cdfFnopuxX+0xbe4>
9d003630:	0064980b 	movn	s3,v1,a0
9d003634:	8fa20068 	lw	v0,104(sp)
9d003638:	24430007 	addiu	v1,v0,7
9d00363c:	2402fff8 	li	v0,-8
9d003640:	00621024 	and	v0,v1,v0
9d003644:	8c440000 	lw	a0,0(v0)
9d003648:	8c450004 	lw	a1,4(v0)
9d00364c:	24420008 	addiu	v0,v0,8
9d003650:	0f401de7 	jal	9d00779c <.LFE1>
9d003654:	afa20068 	sw	v0,104(sp)
9d003658:	0040a021 	move	s4,v0
9d00365c:	02802021 	move	a0,s4
9d003660:	0f40253f 	jal	9d0094fc <.LFE0>
9d003664:	00002821 	move	a1,zero
9d003668:	044001f8 	bltz	v0,9d003e4c <_vfprintf_cdfFnopuxX+0xc0c>
9d00366c:	3c028000 	lui	v0,0x8000
9d003670:	02802021 	move	a0,s4
9d003674:	00002821 	move	a1,zero
9d003678:	0f40253f 	jal	9d0094fc <.LFE0>
9d00367c:	afa00010 	sw	zero,16(sp)
9d003680:	144001fa 	bnez	v0,9d003e6c <_vfprintf_cdfFnopuxX+0xc2c>
9d003684:	0000f021 	move	s8,zero
9d003688:	2a620019 	slti	v0,s3,25
9d00368c:	10400015 	beqz	v0,9d0036e4 <_vfprintf_cdfFnopuxX+0x4a4>
9d003690:	2bc2000a 	slti	v0,s8,10
9d003694:	326200ff 	andi	v0,s3,0xff
9d003698:	305500ff 	andi	s5,v0,0xff
9d00369c:	2ea4006e 	sltiu	a0,s5,110
9d0036a0:	1080022a 	beqz	a0,9d003f4c <_vfprintf_cdfFnopuxX+0xd0c>
9d0036a4:	3c0751eb 	lui	a3,0x51eb
9d0036a8:	2ea4000b 	sltiu	a0,s5,11
9d0036ac:	108003ab 	beqz	a0,9d00455c <_vfprintf_cdfFnopuxX+0x131c>
9d0036b0:	00021080 	sll	v0,v0,0x2
9d0036b4:	3c039d01 	lui	v1,0x9d01
9d0036b8:	24639940 	addiu	v1,v1,-26304
9d0036bc:	00431021 	addu	v0,v0,v1
9d0036c0:	8c440000 	lw	a0,0(v0)
9d0036c4:	3c029d01 	lui	v0,0x9d01
9d0036c8:	0f401edd 	jal	9d007b74 <.LFE4>
9d0036cc:	8c4590a8 	lw	a1,-28504(v0)
9d0036d0:	00402821 	move	a1,v0
9d0036d4:	0f401c38 	jal	9d0070e0 <__addsf3>
9d0036d8:	02802021 	move	a0,s4
9d0036dc:	0040a021 	move	s4,v0
9d0036e0:	2bc2000a 	slti	v0,s8,10
9d0036e4:	50400104 	beqzl	v0,9d003af8 <_vfprintf_cdfFnopuxX+0x8b8>
9d0036e8:	8fa40024 	lw	a0,36(sp)
9d0036ec:	02802021 	move	a0,s4
9d0036f0:	0f40253f 	jal	9d0094fc <.LFE0>
9d0036f4:	00002821 	move	a1,zero
9d0036f8:	144000f7 	bnez	v0,9d003ad8 <_vfprintf_cdfFnopuxX+0x898>
9d0036fc:	02802021 	move	a0,s4
9d003700:	0f4025cf 	jal	9d00973c <__fixunssfsi>
9d003704:	00000000 	nop
9d003708:	0040f021 	move	s8,v0
9d00370c:	0f4026cd 	jal	9d009b34 <.LFE0>
9d003710:	00402021 	move	a0,v0
9d003714:	02802021 	move	a0,s4
9d003718:	0f401c36 	jal	9d0070d8 <__subsf3>
9d00371c:	00402821 	move	a1,v0
9d003720:	afa2001c 	sw	v0,28(sp)
9d003724:	03c0a821 	move	s5,s8
9d003728:	afa00010 	sw	zero,16(sp)
9d00372c:	0b400ed4 	j	9d003b50 <_vfprintf_cdfFnopuxX+0x910>
9d003730:	00005021 	move	t2,zero
9d003734:	24020075 	li	v0,117
9d003738:	a3a20016 	sb	v0,22(sp)
9d00373c:	36d600c0 	ori	s6,s6,0xc0
9d003740:	32c20700 	andi	v0,s6,0x700
9d003744:	1440ffb7 	bnez	v0,9d003624 <_vfprintf_cdfFnopuxX+0x3e4>
9d003748:	32c41000 	andi	a0,s6,0x1000
9d00374c:	32c200c0 	andi	v0,s6,0xc0
9d003750:	144001eb 	bnez	v0,9d003f00 <_vfprintf_cdfFnopuxX+0xcc0>
9d003754:	7c161620 	seh	v0,s6
9d003758:	0440036d 	bltz	v0,9d004510 <_vfprintf_cdfFnopuxX+0x12d0>
9d00375c:	8fa70068 	lw	a3,104(sp)
9d003760:	32c20010 	andi	v0,s6,0x10
9d003764:	10400233 	beqz	v0,9d004034 <_vfprintf_cdfFnopuxX+0xdf4>
9d003768:	8fa40068 	lw	a0,104(sp)
9d00376c:	8fa30068 	lw	v1,104(sp)
9d003770:	8c620000 	lw	v0,0(v1)
9d003774:	24630004 	addiu	v1,v1,4
9d003778:	afa30068 	sw	v1,104(sp)
9d00377c:	00021fc3 	sra	v1,v0,0x1f
9d003780:	0040a821 	move	s5,v0
9d003784:	0060f021 	move	s8,v1
9d003788:	00602021 	move	a0,v1
9d00378c:	04810006 	bgez	a0,9d0037a8 <_vfprintf_cdfFnopuxX+0x568>
9d003790:	00024023 	negu	t0,v0
9d003794:	0008102b 	sltu	v0,zero,t0
9d003798:	00031823 	negu	v1,v1
9d00379c:	36d60003 	ori	s6,s6,0x3
9d0037a0:	0100a821 	move	s5,t0
9d0037a4:	0062f023 	subu	s8,v1,v0
9d0037a8:	16600003 	bnez	s3,9d0037b8 <_vfprintf_cdfFnopuxX+0x578>
9d0037ac:	32d400c0 	andi	s4,s6,0xc0
9d0037b0:	02be9825 	or	s3,s5,s8
9d0037b4:	2e730001 	sltiu	s3,s3,1
9d0037b8:	24020040 	li	v0,64
9d0037bc:	12820332 	beq	s4,v0,9d004488 <_vfprintf_cdfFnopuxX+0x1248>
9d0037c0:	2e820041 	sltiu	v0,s4,65
9d0037c4:	14400228 	bnez	v0,9d004068 <_vfprintf_cdfFnopuxX+0xe28>
9d0037c8:	24020080 	li	v0,128
9d0037cc:	12820309 	beq	s4,v0,9d0043f4 <_vfprintf_cdfFnopuxX+0x11b4>
9d0037d0:	24020001 	li	v0,1
9d0037d4:	240200c0 	li	v0,192
9d0037d8:	16820226 	bne	s4,v0,9d004074 <_vfprintf_cdfFnopuxX+0xe34>
9d0037dc:	83a20016 	lb	v0,22(sp)
9d0037e0:	24020001 	li	v0,1
9d0037e4:	13c0038b 	beqz	s8,9d004614 <_vfprintf_cdfFnopuxX+0x13d4>
9d0037e8:	a3a20016 	sb	v0,22(sp)
9d0037ec:	3c039d01 	lui	v1,0x9d01
9d0037f0:	24638fe0 	addiu	v1,v1,-28704
9d0037f4:	24020003 	li	v0,3
9d0037f8:	24060002 	li	a2,2
9d0037fc:	0b400e02 	j	9d003808 <_vfprintf_cdfFnopuxX+0x5c8>
9d003800:	24070015 	li	a3,21
9d003804:	00803021 	move	a2,a0
9d003808:	8c640004 	lw	a0,4(v1)
9d00380c:	03c4282b 	sltu	a1,s8,a0
9d003810:	54a002eb 	bnezl	a1,9d0043c0 <_vfprintf_cdfFnopuxX+0x1180>
9d003814:	a3a60016 	sb	a2,22(sp)
9d003818:	509e0373 	beql	a0,s8,9d0045e8 <_vfprintf_cdfFnopuxX+0x13a8>
9d00381c:	8c640000 	lw	a0,0(v1)
9d003820:	24450001 	addiu	a1,v0,1
9d003824:	7c022420 	seb	a0,v0
9d003828:	30a200ff 	andi	v0,a1,0xff
9d00382c:	1447fff5 	bne	v0,a3,9d003804 <_vfprintf_cdfFnopuxX+0x5c4>
9d003830:	24630008 	addiu	v1,v1,8
9d003834:	00801021 	move	v0,a0
9d003838:	0053182a 	slt	v1,v0,s3
9d00383c:	14600210 	bnez	v1,9d004080 <_vfprintf_cdfFnopuxX+0xe40>
9d003840:	a3a40016 	sb	a0,22(sp)
9d003844:	0262182a 	slt	v1,s3,v0
9d003848:	0043980b 	movn	s3,v0,v1
9d00384c:	12e00005 	beqz	s7,9d003864 <_vfprintf_cdfFnopuxX+0x624>
9d003850:	32c34000 	andi	v1,s6,0x4000
9d003854:	32c30003 	andi	v1,s6,0x3
9d003858:	0003182b 	sltu	v1,zero,v1
9d00385c:	02e3b823 	subu	s7,s7,v1
9d003860:	32c34000 	andi	v1,s6,0x4000
9d003864:	10600005 	beqz	v1,9d00387c <_vfprintf_cdfFnopuxX+0x63c>
9d003868:	0057182a 	slt	v1,v0,s7
9d00386c:	0277182a 	slt	v1,s3,s7
9d003870:	02f3b823 	subu	s7,s7,s3
9d003874:	0003b80a 	movz	s7,zero,v1
9d003878:	0057182a 	slt	v1,v0,s7
9d00387c:	54600225 	bnezl	v1,9d004114 <_vfprintf_cdfFnopuxX+0xed4>
9d003880:	32c30004 	andi	v1,s6,0x4
9d003884:	32c20004 	andi	v0,s6,0x4
9d003888:	10400371 	beqz	v0,9d004650 <_vfprintf_cdfFnopuxX+0x1410>
9d00388c:	32c20008 	andi	v0,s6,0x8
9d003890:	0b401047 	j	9d00411c <_vfprintf_cdfFnopuxX+0xedc>
9d003894:	0000b821 	move	s7,zero
9d003898:	24020073 	li	v0,115
9d00389c:	a3a20016 	sb	v0,22(sp)
9d0038a0:	8fa50068 	lw	a1,104(sp)
9d0038a4:	8ca40000 	lw	a0,0(a1)
9d0038a8:	24a50004 	addiu	a1,a1,4
9d0038ac:	10800323 	beqz	a0,9d00453c <_vfprintf_cdfFnopuxX+0x12fc>
9d0038b0:	0080a821 	move	s5,a0
9d0038b4:	80820000 	lb	v0,0(a0)
9d0038b8:	10400353 	beqz	v0,9d004608 <_vfprintf_cdfFnopuxX+0x13c8>
9d0038bc:	24820001 	addiu	v0,a0,1
9d0038c0:	0044a023 	subu	s4,v0,a0
9d0038c4:	24420001 	addiu	v0,v0,1
9d0038c8:	8043ffff 	lb	v1,-1(v0)
9d0038cc:	5460fffd 	bnezl	v1,9d0038c4 <_vfprintf_cdfFnopuxX+0x684>
9d0038d0:	0044a023 	subu	s4,v0,a0
9d0038d4:	afa50068 	sw	a1,104(sp)
9d0038d8:	12600003 	beqz	s3,9d0038e8 <_vfprintf_cdfFnopuxX+0x6a8>
9d0038dc:	32d60008 	andi	s6,s6,0x8
9d0038e0:	0274102b 	sltu	v0,s3,s4
9d0038e4:	0262a00b 	movn	s4,s3,v0
9d0038e8:	0297102b 	sltu	v0,s4,s7
9d0038ec:	02f4b823 	subu	s7,s7,s4
9d0038f0:	32d6ffff 	andi	s6,s6,0xffff
9d0038f4:	16c0000c 	bnez	s6,9d003928 <_vfprintf_cdfFnopuxX+0x6e8>
9d0038f8:	0002b80a 	movz	s7,zero,v0
9d0038fc:	52e0000a 	beqzl	s7,9d003928 <_vfprintf_cdfFnopuxX+0x6e8>
9d003900:	2417ffff 	li	s7,-1
9d003904:	24040020 	li	a0,32
9d003908:	0f402135 	jal	9d0084d4 <.LFE0>
9d00390c:	02402821 	move	a1,s2
9d003910:	00021027 	nor	v0,zero,v0
9d003914:	0002102b 	sltu	v0,zero,v0
9d003918:	26f7ffff 	addiu	s7,s7,-1
9d00391c:	16e0fff9 	bnez	s7,9d003904 <_vfprintf_cdfFnopuxX+0x6c4>
9d003920:	02028021 	addu	s0,s0,v0
9d003924:	2417ffff 	li	s7,-1
9d003928:	2694ffff 	addiu	s4,s4,-1
9d00392c:	2413ffff 	li	s3,-1
9d003930:	1293000a 	beq	s4,s3,9d00395c <_vfprintf_cdfFnopuxX+0x71c>
9d003934:	00000000 	nop
9d003938:	82a40000 	lb	a0,0(s5)
9d00393c:	02402821 	move	a1,s2
9d003940:	0f402135 	jal	9d0084d4 <.LFE0>
9d003944:	26b50001 	addiu	s5,s5,1
9d003948:	00021027 	nor	v0,zero,v0
9d00394c:	0002102b 	sltu	v0,zero,v0
9d003950:	2694ffff 	addiu	s4,s4,-1
9d003954:	1693fff8 	bne	s4,s3,9d003938 <_vfprintf_cdfFnopuxX+0x6f8>
9d003958:	02028021 	addu	s0,s0,v0
9d00395c:	52c0fe4a 	beqzl	s6,9d003288 <_vfprintf_cdfFnopuxX+0x48>
9d003960:	82240000 	lb	a0,0(s1)
9d003964:	12e0fe47 	beqz	s7,9d003284 <_vfprintf_cdfFnopuxX+0x44>
9d003968:	24040020 	li	a0,32
9d00396c:	0f402135 	jal	9d0084d4 <.LFE0>
9d003970:	02402821 	move	a1,s2
9d003974:	00021027 	nor	v0,zero,v0
9d003978:	0002102b 	sltu	v0,zero,v0
9d00397c:	02028021 	addu	s0,s0,v0
9d003980:	0b400e59 	j	9d003964 <_vfprintf_cdfFnopuxX+0x724>
9d003984:	26f7ffff 	addiu	s7,s7,-1
9d003988:	2402006f 	li	v0,111
9d00398c:	a3a20016 	sb	v0,22(sp)
9d003990:	0b400d85 	j	9d003614 <_vfprintf_cdfFnopuxX+0x3d4>
9d003994:	36d60040 	ori	s6,s6,0x40
9d003998:	32c20010 	andi	v0,s6,0x10
9d00399c:	00a01821 	move	v1,a1
9d0039a0:	00c2180a 	movz	v1,a2,v0
9d0039a4:	0076b025 	or	s6,v1,s6
9d0039a8:	82220000 	lb	v0,0(s1)
9d0039ac:	304300ff 	andi	v1,v0,0xff
9d0039b0:	2c640079 	sltiu	a0,v1,121
9d0039b4:	1480fe94 	bnez	a0,9d003408 <_vfprintf_cdfFnopuxX+0x1c8>
9d0039b8:	26310001 	addiu	s1,s1,1
9d0039bc:	a3a20016 	sb	v0,22(sp)
9d0039c0:	27b50016 	addiu	s5,sp,22
9d0039c4:	0b400e36 	j	9d0038d8 <_vfprintf_cdfFnopuxX+0x698>
9d0039c8:	24140001 	li	s4,1
9d0039cc:	24020066 	li	v0,102
9d0039d0:	a3a20016 	sb	v0,22(sp)
9d0039d4:	0b400d85 	j	9d003614 <_vfprintf_cdfFnopuxX+0x3d4>
9d0039d8:	36d60400 	ori	s6,s6,0x400
9d0039dc:	0b400d85 	j	9d003614 <_vfprintf_cdfFnopuxX+0x3d4>
9d0039e0:	a3a20016 	sb	v0,22(sp)
9d0039e4:	8fa60068 	lw	a2,104(sp)
9d0039e8:	8cc30000 	lw	v1,0(a2)
9d0039ec:	32c60010 	andi	a2,s6,0x10
9d0039f0:	8fa70068 	lw	a3,104(sp)
9d0039f4:	24e50004 	addiu	a1,a3,4
9d0039f8:	000327c3 	sra	a0,v1,0x1f
9d0039fc:	00042600 	sll	a0,a0,0x18
9d003a00:	00031202 	srl	v0,v1,0x8
9d003a04:	00821025 	or	v0,a0,v0
9d003a08:	7c022420 	seb	a0,v0
9d003a0c:	10c00191 	beqz	a2,9d004054 <_vfprintf_cdfFnopuxX+0xe14>
9d003a10:	a3a40016 	sb	a0,22(sp)
9d003a14:	24420001 	addiu	v0,v0,1
9d003a18:	304200ff 	andi	v0,v0,0xff
9d003a1c:	2c420002 	sltiu	v0,v0,2
9d003a20:	5440018d 	bnezl	v0,9d004058 <_vfprintf_cdfFnopuxX+0xe18>
9d003a24:	a3a30014 	sb	v1,20(sp)
9d003a28:	a3a40014 	sb	a0,20(sp)
9d003a2c:	a3a30015 	sb	v1,21(sp)
9d003a30:	24140002 	li	s4,2
9d003a34:	27b50014 	addiu	s5,sp,20
9d003a38:	0b400e36 	j	9d0038d8 <_vfprintf_cdfFnopuxX+0x698>
9d003a3c:	afa50068 	sw	a1,104(sp)
9d003a40:	a3a20016 	sb	v0,22(sp)
9d003a44:	0b400d84 	j	9d003610 <_vfprintf_cdfFnopuxX+0x3d0>
9d003a48:	36d60020 	ori	s6,s6,0x20
9d003a4c:	0b400cb8 	j	9d0032e0 <_vfprintf_cdfFnopuxX+0xa0>
9d003a50:	24420001 	addiu	v0,v0,1
9d003a54:	2402002a 	li	v0,42
9d003a58:	12e20133 	beq	s7,v0,9d003f28 <_vfprintf_cdfFnopuxX+0xce8>
9d003a5c:	2403002e 	li	v1,46
9d003a60:	02e01021 	move	v0,s7
9d003a64:	1443fe60 	bne	v0,v1,9d0033e8 <_vfprintf_cdfFnopuxX+0x1a8>
9d003a68:	0000b821 	move	s7,zero
9d003a6c:	82220001 	lb	v0,1(s1)
9d003a70:	2403002a 	li	v1,42
9d003a74:	10430254 	beq	v0,v1,9d0043c8 <_vfprintf_cdfFnopuxX+0x1188>
9d003a78:	36d64000 	ori	s6,s6,0x4000
9d003a7c:	3c049d01 	lui	a0,0x9d01
9d003a80:	24848cc9 	addiu	a0,a0,-29495
9d003a84:	00821821 	addu	v1,a0,v0
9d003a88:	90630000 	lbu	v1,0(v1)
9d003a8c:	26310001 	addiu	s1,s1,1
9d003a90:	30630004 	andi	v1,v1,0x4
9d003a94:	1060fe56 	beqz	v1,9d0033f0 <_vfprintf_cdfFnopuxX+0x1b0>
9d003a98:	00009821 	move	s3,zero
9d003a9c:	00131840 	sll	v1,s3,0x1
9d003aa0:	001398c0 	sll	s3,s3,0x3
9d003aa4:	26310001 	addiu	s1,s1,1
9d003aa8:	00739821 	addu	s3,v1,s3
9d003aac:	02629821 	addu	s3,s3,v0
9d003ab0:	82220000 	lb	v0,0(s1)
9d003ab4:	3c069d01 	lui	a2,0x9d01
9d003ab8:	24c68cc9 	addiu	a2,a2,-29495
9d003abc:	00c21821 	addu	v1,a2,v0
9d003ac0:	90630000 	lbu	v1,0(v1)
9d003ac4:	30630004 	andi	v1,v1,0x4
9d003ac8:	1460fff4 	bnez	v1,9d003a9c <_vfprintf_cdfFnopuxX+0x85c>
9d003acc:	2673ffd0 	addiu	s3,s3,-48
9d003ad0:	0b400cfd 	j	9d0033f4 <_vfprintf_cdfFnopuxX+0x1b4>
9d003ad4:	24060010 	li	a2,16
9d003ad8:	0f4025cf 	jal	9d00973c <__fixunssfsi>
9d003adc:	00000000 	nop
9d003ae0:	5440ff0a 	bnezl	v0,9d00370c <_vfprintf_cdfFnopuxX+0x4cc>
9d003ae4:	0040f021 	move	s8,v0
9d003ae8:	2bc30002 	slti	v1,s8,2
9d003aec:	5460ff07 	bnezl	v1,9d00370c <_vfprintf_cdfFnopuxX+0x4cc>
9d003af0:	0040f021 	move	s8,v0
9d003af4:	8fa40024 	lw	a0,36(sp)
9d003af8:	3c029d01 	lui	v0,0x9d01
9d003afc:	244290ac 	addiu	v0,v0,-28500
9d003b00:	0f40253f 	jal	9d0094fc <.LFE0>
9d003b04:	8c450000 	lw	a1,0(v0)
9d003b08:	0440010e 	bltz	v0,9d003f44 <_vfprintf_cdfFnopuxX+0xd04>
9d003b0c:	27caffed 	addiu	t2,s8,-19
9d003b10:	27caffee 	addiu	t2,s8,-18
9d003b14:	afaa0010 	sw	t2,16(sp)
9d003b18:	7c0a2420 	seb	a0,t2
9d003b1c:	0f401d60 	jal	9d007580 <scale>
9d003b20:	afaa002c 	sw	t2,44(sp)
9d003b24:	afa20024 	sw	v0,36(sp)
9d003b28:	02802021 	move	a0,s4
9d003b2c:	0f401cd4 	jal	9d007350 <__divsf3>
9d003b30:	00402821 	move	a1,v0
9d003b34:	0f4025cf 	jal	9d00973c <__fixunssfsi>
9d003b38:	00402021 	move	a0,v0
9d003b3c:	0040f021 	move	s8,v0
9d003b40:	0040a821 	move	s5,v0
9d003b44:	00001821 	move	v1,zero
9d003b48:	afa3001c 	sw	v1,28(sp)
9d003b4c:	8faa002c 	lw	t2,44(sp)
9d003b50:	2fc2000a 	sltiu	v0,s8,10
9d003b54:	1440027d 	bnez	v0,9d00454c <_vfprintf_cdfFnopuxX+0x130c>
9d003b58:	3c039d01 	lui	v1,0x9d01
9d003b5c:	24638fe0 	addiu	v1,v1,-28704
9d003b60:	24050002 	li	a1,2
9d003b64:	24060002 	li	a2,2
9d003b68:	24090014 	li	t1,20
9d003b6c:	8c670004 	lw	a3,4(v1)
9d003b70:	54e0000c 	bnezl	a3,9d003ba4 <_vfprintf_cdfFnopuxX+0x964>
9d003b74:	a3a60016 	sb	a2,22(sp)
9d003b78:	8c620000 	lw	v0,0(v1)
9d003b7c:	03c2102b 	sltu	v0,s8,v0
9d003b80:	54400008 	bnezl	v0,9d003ba4 <_vfprintf_cdfFnopuxX+0x964>
9d003b84:	a3a60016 	sb	a2,22(sp)
9d003b88:	24a60001 	addiu	a2,a1,1
9d003b8c:	00c02821 	move	a1,a2
9d003b90:	7c063420 	seb	a2,a2
9d003b94:	14a9fff5 	bne	a1,t1,9d003b6c <_vfprintf_cdfFnopuxX+0x92c>
9d003b98:	24630008 	addiu	v1,v1,8
9d003b9c:	a3a60016 	sb	a2,22(sp)
9d003ba0:	24050014 	li	a1,20
9d003ba4:	02652821 	addu	a1,s3,a1
9d003ba8:	00aa5021 	addu	t2,a1,t2
9d003bac:	02eab823 	subu	s7,s7,t2
9d003bb0:	0013102b 	sltu	v0,zero,s3
9d003bb4:	32c30003 	andi	v1,s6,0x3
9d003bb8:	02e2b823 	subu	s7,s7,v0
9d003bbc:	0003182b 	sltu	v1,zero,v1
9d003bc0:	32c20004 	andi	v0,s6,0x4
9d003bc4:	10400137 	beqz	v0,9d0040a4 <_vfprintf_cdfFnopuxX+0xe64>
9d003bc8:	02e3b823 	subu	s7,s7,v1
9d003bcc:	32c20002 	andi	v0,s6,0x2
9d003bd0:	10400221 	beqz	v0,9d004458 <_vfprintf_cdfFnopuxX+0x1218>
9d003bd4:	32c20001 	andi	v0,s6,0x1
9d003bd8:	32c40001 	andi	a0,s6,0x1
9d003bdc:	2402002d 	li	v0,45
9d003be0:	2403002b 	li	v1,43
9d003be4:	0064100a 	movz	v0,v1,a0
9d003be8:	00402021 	move	a0,v0
9d003bec:	0f402135 	jal	9d0084d4 <.LFE0>
9d003bf0:	02402821 	move	a1,s2
9d003bf4:	00021027 	nor	v0,zero,v0
9d003bf8:	0002102b 	sltu	v0,zero,v0
9d003bfc:	02028021 	addu	s0,s0,v0
9d003c00:	5ae0000a 	blezl	s7,9d003c2c <_vfprintf_cdfFnopuxX+0x9ec>
9d003c04:	32d60008 	andi	s6,s6,0x8
9d003c08:	24040030 	li	a0,48
9d003c0c:	0f402135 	jal	9d0084d4 <.LFE0>
9d003c10:	02402821 	move	a1,s2
9d003c14:	00021027 	nor	v0,zero,v0
9d003c18:	0002102b 	sltu	v0,zero,v0
9d003c1c:	26f7ffff 	addiu	s7,s7,-1
9d003c20:	16e0fff9 	bnez	s7,9d003c08 <_vfprintf_cdfFnopuxX+0x9c8>
9d003c24:	02028021 	addu	s0,s0,v0
9d003c28:	32d60008 	andi	s6,s6,0x8
9d003c2c:	32d6ffff 	andi	s6,s6,0xffff
9d003c30:	afb60018 	sw	s6,24(sp)
9d003c34:	3c049d01 	lui	a0,0x9d01
9d003c38:	0b400f22 	j	9d003c88 <_vfprintf_cdfFnopuxX+0xa48>
9d003c3c:	24948fd0 	addiu	s4,a0,-28720
9d003c40:	000318c0 	sll	v1,v1,0x3
9d003c44:	02831821 	addu	v1,s4,v1
9d003c48:	8c660000 	lw	a2,0(v1)
9d003c4c:	8c670004 	lw	a3,4(v1)
9d003c50:	02a02021 	move	a0,s5
9d003c54:	0f40177f 	jal	9d005dfc <__udivdi3>
9d003c58:	00002821 	move	a1,zero
9d003c5c:	00402021 	move	a0,v0
9d003c60:	00602821 	move	a1,v1
9d003c64:	2406000a 	li	a2,10
9d003c68:	0f401550 	jal	9d005540 <__umoddi3>
9d003c6c:	00003821 	move	a3,zero
9d003c70:	24440030 	addiu	a0,v0,48
9d003c74:	0f402135 	jal	9d0084d4 <.LFE0>
9d003c78:	02402821 	move	a1,s2
9d003c7c:	00021027 	nor	v0,zero,v0
9d003c80:	0002102b 	sltu	v0,zero,v0
9d003c84:	02028021 	addu	s0,s0,v0
9d003c88:	83a20016 	lb	v0,22(sp)
9d003c8c:	2443ffff 	addiu	v1,v0,-1
9d003c90:	7c031c20 	seb	v1,v1
9d003c94:	1440ffea 	bnez	v0,9d003c40 <_vfprintf_cdfFnopuxX+0xa00>
9d003c98:	a3a30016 	sb	v1,22(sp)
9d003c9c:	8fa20010 	lw	v0,16(sp)
9d003ca0:	1840000c 	blez	v0,9d003cd4 <_vfprintf_cdfFnopuxX+0xa94>
9d003ca4:	2a620013 	slti	v0,s3,19
9d003ca8:	24040030 	li	a0,48
9d003cac:	0f402135 	jal	9d0084d4 <.LFE0>
9d003cb0:	02402821 	move	a1,s2
9d003cb4:	00021027 	nor	v0,zero,v0
9d003cb8:	0002102b 	sltu	v0,zero,v0
9d003cbc:	8fa30010 	lw	v1,16(sp)
9d003cc0:	2463ffff 	addiu	v1,v1,-1
9d003cc4:	02028021 	addu	s0,s0,v0
9d003cc8:	1c60fff7 	bgtz	v1,9d003ca8 <_vfprintf_cdfFnopuxX+0xa68>
9d003ccc:	afa30010 	sw	v1,16(sp)
9d003cd0:	2a620013 	slti	v0,s3,19
9d003cd4:	144000ed 	bnez	v0,9d00408c <_vfprintf_cdfFnopuxX+0xe4c>
9d003cd8:	7c131420 	seb	v0,s3
9d003cdc:	24020012 	li	v0,18
9d003ce0:	a3a20016 	sb	v0,22(sp)
9d003ce4:	2674ffee 	addiu	s4,s3,-18
9d003ce8:	2404002e 	li	a0,46
9d003cec:	0f402135 	jal	9d0084d4 <.LFE0>
9d003cf0:	02402821 	move	a1,s2
9d003cf4:	2403ffff 	li	v1,-1
9d003cf8:	10430002 	beq	v0,v1,9d003d04 <_vfprintf_cdfFnopuxX+0xac4>
9d003cfc:	83b30016 	lb	s3,22(sp)
9d003d00:	26100001 	addiu	s0,s0,1
9d003d04:	0f401d60 	jal	9d007580 <scale>
9d003d08:	02602021 	move	a0,s3
9d003d0c:	00402021 	move	a0,v0
9d003d10:	0f401edd 	jal	9d007b74 <.LFE4>
9d003d14:	8fa5001c 	lw	a1,28(sp)
9d003d18:	0f4025cf 	jal	9d00973c <__fixunssfsi>
9d003d1c:	00402021 	move	a0,v0
9d003d20:	0040a821 	move	s5,v0
9d003d24:	2666ffff 	addiu	a2,s3,-1
9d003d28:	7c063420 	seb	a2,a2
9d003d2c:	0000f021 	move	s8,zero
9d003d30:	12600023 	beqz	s3,9d003dc0 <_vfprintf_cdfFnopuxX+0xb80>
9d003d34:	a3a60016 	sb	a2,22(sp)
9d003d38:	3c059d01 	lui	a1,0x9d01
9d003d3c:	24b38fd0 	addiu	s3,a1,-28720
9d003d40:	000630c0 	sll	a2,a2,0x3
9d003d44:	02663021 	addu	a2,s3,a2
9d003d48:	8cc70004 	lw	a3,4(a2)
9d003d4c:	8cc60000 	lw	a2,0(a2)
9d003d50:	02a02021 	move	a0,s5
9d003d54:	0f40177f 	jal	9d005dfc <__udivdi3>
9d003d58:	03c02821 	move	a1,s8
9d003d5c:	00402021 	move	a0,v0
9d003d60:	00602821 	move	a1,v1
9d003d64:	2406000a 	li	a2,10
9d003d68:	0f401550 	jal	9d005540 <__umoddi3>
9d003d6c:	00003821 	move	a3,zero
9d003d70:	24440030 	addiu	a0,v0,48
9d003d74:	0f402135 	jal	9d0084d4 <.LFE0>
9d003d78:	02402821 	move	a1,s2
9d003d7c:	83b60016 	lb	s6,22(sp)
9d003d80:	00021027 	nor	v0,zero,v0
9d003d84:	0002102b 	sltu	v0,zero,v0
9d003d88:	001618c0 	sll	v1,s6,0x3
9d003d8c:	02631821 	addu	v1,s3,v1
9d003d90:	8c660000 	lw	a2,0(v1)
9d003d94:	8c670004 	lw	a3,4(v1)
9d003d98:	02a02021 	move	a0,s5
9d003d9c:	03c02821 	move	a1,s8
9d003da0:	0f401550 	jal	9d005540 <__umoddi3>
9d003da4:	02028021 	addu	s0,s0,v0
9d003da8:	26c6ffff 	addiu	a2,s6,-1
9d003dac:	7c063420 	seb	a2,a2
9d003db0:	0040a821 	move	s5,v0
9d003db4:	0060f021 	move	s8,v1
9d003db8:	16c0ffe1 	bnez	s6,9d003d40 <_vfprintf_cdfFnopuxX+0xb00>
9d003dbc:	a3a60016 	sb	a2,22(sp)
9d003dc0:	1280000a 	beqz	s4,9d003dec <_vfprintf_cdfFnopuxX+0xbac>
9d003dc4:	8fa60018 	lw	a2,24(sp)
9d003dc8:	24040030 	li	a0,48
9d003dcc:	0f402135 	jal	9d0084d4 <.LFE0>
9d003dd0:	02402821 	move	a1,s2
9d003dd4:	00021027 	nor	v0,zero,v0
9d003dd8:	0002102b 	sltu	v0,zero,v0
9d003ddc:	2694ffff 	addiu	s4,s4,-1
9d003de0:	1680fff9 	bnez	s4,9d003dc8 <_vfprintf_cdfFnopuxX+0xb88>
9d003de4:	02028021 	addu	s0,s0,v0
9d003de8:	8fa60018 	lw	a2,24(sp)
9d003dec:	50c0fd26 	beqzl	a2,9d003288 <_vfprintf_cdfFnopuxX+0x48>
9d003df0:	82240000 	lb	a0,0(s1)
9d003df4:	5ae0fd24 	blezl	s7,9d003288 <_vfprintf_cdfFnopuxX+0x48>
9d003df8:	82240000 	lb	a0,0(s1)
9d003dfc:	24040020 	li	a0,32
9d003e00:	0f402135 	jal	9d0084d4 <.LFE0>
9d003e04:	02402821 	move	a1,s2
9d003e08:	00021027 	nor	v0,zero,v0
9d003e0c:	0002102b 	sltu	v0,zero,v0
9d003e10:	26f7ffff 	addiu	s7,s7,-1
9d003e14:	16e0fff9 	bnez	s7,9d003dfc <_vfprintf_cdfFnopuxX+0xbbc>
9d003e18:	02028021 	addu	s0,s0,v0
9d003e1c:	0b400ca2 	j	9d003288 <_vfprintf_cdfFnopuxX+0x48>
9d003e20:	82240000 	lb	a0,0(s1)
9d003e24:	8fa30068 	lw	v1,104(sp)
9d003e28:	8c740000 	lw	s4,0(v1)
9d003e2c:	24630004 	addiu	v1,v1,4
9d003e30:	afa30068 	sw	v1,104(sp)
9d003e34:	02802021 	move	a0,s4
9d003e38:	0f40253f 	jal	9d0094fc <.LFE0>
9d003e3c:	00002821 	move	a1,zero
9d003e40:	0441fe0c 	bgez	v0,9d003674 <_vfprintf_cdfFnopuxX+0x434>
9d003e44:	02802021 	move	a0,s4
9d003e48:	3c028000 	lui	v0,0x8000
9d003e4c:	0054a026 	xor	s4,v0,s4
9d003e50:	36d60003 	ori	s6,s6,0x3
9d003e54:	02802021 	move	a0,s4
9d003e58:	00002821 	move	a1,zero
9d003e5c:	0f40253f 	jal	9d0094fc <.LFE0>
9d003e60:	afa00010 	sw	zero,16(sp)
9d003e64:	1040fe08 	beqz	v0,9d003688 <_vfprintf_cdfFnopuxX+0x448>
9d003e68:	0000f021 	move	s8,zero
9d003e6c:	02802021 	move	a0,s4
9d003e70:	0f40258d 	jal	9d009634 <.LFE0>
9d003e74:	27a50010 	addiu	a1,sp,16
9d003e78:	8fa20010 	lw	v0,16(sp)
9d003e7c:	2442ffff 	addiu	v0,v0,-1
9d003e80:	00021840 	sll	v1,v0,0x1
9d003e84:	00621021 	addu	v0,v1,v0
9d003e88:	3c036666 	lui	v1,0x6666
9d003e8c:	24636667 	addiu	v1,v1,26215
9d003e90:	00430018 	mult	v0,v1
9d003e94:	00001810 	mfhi	v1
9d003e98:	000217c3 	sra	v0,v0,0x1f
9d003e9c:	00031883 	sra	v1,v1,0x2
9d003ea0:	00621023 	subu	v0,v1,v0
9d003ea4:	2443ffff 	addiu	v1,v0,-1
9d003ea8:	285e0000 	slti	s8,v0,0
9d003eac:	007e100b 	movn	v0,v1,s8
9d003eb0:	0040f021 	move	s8,v0
9d003eb4:	00022023 	negu	a0,v0
9d003eb8:	0f401d60 	jal	9d007580 <scale>
9d003ebc:	7c042420 	seb	a0,a0
9d003ec0:	00402021 	move	a0,v0
9d003ec4:	0f401edd 	jal	9d007b74 <.LFE4>
9d003ec8:	02802821 	move	a1,s4
9d003ecc:	afa20024 	sw	v0,36(sp)
9d003ed0:	3c029d01 	lui	v0,0x9d01
9d003ed4:	8c4590a0 	lw	a1,-28512(v0)
9d003ed8:	0f40253f 	jal	9d0094fc <.LFE0>
9d003edc:	8fa40024 	lw	a0,36(sp)
9d003ee0:	044001c7 	bltz	v0,9d004600 <_vfprintf_cdfFnopuxX+0x13c0>
9d003ee4:	3c029d01 	lui	v0,0x9d01
9d003ee8:	8c4490a4 	lw	a0,-28508(v0)
9d003eec:	0f40253f 	jal	9d0094fc <.LFE0>
9d003ef0:	8fa50024 	lw	a1,36(sp)
9d003ef4:	28420001 	slti	v0,v0,1
9d003ef8:	0b400da2 	j	9d003688 <_vfprintf_cdfFnopuxX+0x448>
9d003efc:	03c2f021 	addu	s8,s8,v0
9d003f00:	0440017a 	bltz	v0,9d0044ec <_vfprintf_cdfFnopuxX+0x12ac>
9d003f04:	32c20010 	andi	v0,s6,0x10
9d003f08:	10400045 	beqz	v0,9d004020 <_vfprintf_cdfFnopuxX+0xde0>
9d003f0c:	8fa20068 	lw	v0,104(sp)
9d003f10:	8fa70068 	lw	a3,104(sp)
9d003f14:	8cf50000 	lw	s5,0(a3)
9d003f18:	0000f021 	move	s8,zero
9d003f1c:	24e70004 	addiu	a3,a3,4
9d003f20:	0b400dea 	j	9d0037a8 <_vfprintf_cdfFnopuxX+0x568>
9d003f24:	afa70068 	sw	a3,104(sp)
9d003f28:	8fa70068 	lw	a3,104(sp)
9d003f2c:	8cf70000 	lw	s7,0(a3)
9d003f30:	26310001 	addiu	s1,s1,1
9d003f34:	80a20001 	lb	v0,1(a1)
9d003f38:	24e70004 	addiu	a3,a3,4
9d003f3c:	0b400cf7 	j	9d0033dc <_vfprintf_cdfFnopuxX+0x19c>
9d003f40:	afa70068 	sw	a3,104(sp)
9d003f44:	0b400ec6 	j	9d003b18 <_vfprintf_cdfFnopuxX+0x8d8>
9d003f48:	afaa0010 	sw	t2,16(sp)
9d003f4c:	34e7851f 	ori	a3,a3,0x851f
9d003f50:	02a70019 	multu	s5,a3
9d003f54:	00003810 	mfhi	a3
9d003f58:	3c069d01 	lui	a2,0x9d01
9d003f5c:	24c69940 	addiu	a2,a2,-26304
9d003f60:	3c029d01 	lui	v0,0x9d01
9d003f64:	8c4590a8 	lw	a1,-28504(v0)
9d003f68:	00073942 	srl	a3,a3,0x5
9d003f6c:	24e20012 	addiu	v0,a3,18
9d003f70:	00021080 	sll	v0,v0,0x2
9d003f74:	00461021 	addu	v0,v0,a2
9d003f78:	8c440000 	lw	a0,0(v0)
9d003f7c:	afa60030 	sw	a2,48(sp)
9d003f80:	0f401edd 	jal	9d007b74 <.LFE4>
9d003f84:	afa7002c 	sw	a3,44(sp)
9d003f88:	8fa7002c 	lw	a3,44(sp)
9d003f8c:	00072080 	sll	a0,a3,0x2
9d003f90:	00073900 	sll	a3,a3,0x4
9d003f94:	00872021 	addu	a0,a0,a3
9d003f98:	00042880 	sll	a1,a0,0x2
9d003f9c:	00852021 	addu	a0,a0,a1
9d003fa0:	02a42823 	subu	a1,s5,a0
9d003fa4:	3c07cccc 	lui	a3,0xcccc
9d003fa8:	34e7cccd 	ori	a3,a3,0xcccd
9d003fac:	30a500ff 	andi	a1,a1,0xff
9d003fb0:	00a70019 	multu	a1,a3
9d003fb4:	00002810 	mfhi	a1
9d003fb8:	00402021 	move	a0,v0
9d003fbc:	000510c2 	srl	v0,a1,0x3
9d003fc0:	24420009 	addiu	v0,v0,9
9d003fc4:	00021080 	sll	v0,v0,0x2
9d003fc8:	8fa60030 	lw	a2,48(sp)
9d003fcc:	00461021 	addu	v0,v0,a2
9d003fd0:	8c450000 	lw	a1,0(v0)
9d003fd4:	0f401edd 	jal	9d007b74 <.LFE4>
9d003fd8:	afa7002c 	sw	a3,44(sp)
9d003fdc:	8fa7002c 	lw	a3,44(sp)
9d003fe0:	02a70019 	multu	s5,a3
9d003fe4:	00003810 	mfhi	a3
9d003fe8:	00402021 	move	a0,v0
9d003fec:	000710c2 	srl	v0,a3,0x3
9d003ff0:	00022840 	sll	a1,v0,0x1
9d003ff4:	000210c0 	sll	v0,v0,0x3
9d003ff8:	00a21021 	addu	v0,a1,v0
9d003ffc:	02a21023 	subu	v0,s5,v0
9d004000:	304200ff 	andi	v0,v0,0xff
9d004004:	00021080 	sll	v0,v0,0x2
9d004008:	8fa60030 	lw	a2,48(sp)
9d00400c:	00463021 	addu	a2,v0,a2
9d004010:	0f401edd 	jal	9d007b74 <.LFE4>
9d004014:	8cc50000 	lw	a1,0(a2)
9d004018:	0b400db5 	j	9d0036d4 <_vfprintf_cdfFnopuxX+0x494>
9d00401c:	00402821 	move	a1,v0
9d004020:	8c550000 	lw	s5,0(v0)
9d004024:	0000f021 	move	s8,zero
9d004028:	24420004 	addiu	v0,v0,4
9d00402c:	0b400dea 	j	9d0037a8 <_vfprintf_cdfFnopuxX+0x568>
9d004030:	afa20068 	sw	v0,104(sp)
9d004034:	8c820000 	lw	v0,0(a0)
9d004038:	24840004 	addiu	a0,a0,4
9d00403c:	afa40068 	sw	a0,104(sp)
9d004040:	00021fc3 	sra	v1,v0,0x1f
9d004044:	0040a821 	move	s5,v0
9d004048:	0060f021 	move	s8,v1
9d00404c:	0b400de3 	j	9d00378c <_vfprintf_cdfFnopuxX+0x54c>
9d004050:	00602021 	move	a0,v1
9d004054:	a3a30014 	sb	v1,20(sp)
9d004058:	24140001 	li	s4,1
9d00405c:	27b50014 	addiu	s5,sp,20
9d004060:	0b400e36 	j	9d0038d8 <_vfprintf_cdfFnopuxX+0x698>
9d004064:	afa50068 	sw	a1,104(sp)
9d004068:	1280fdde 	beqz	s4,9d0037e4 <_vfprintf_cdfFnopuxX+0x5a4>
9d00406c:	24020001 	li	v0,1
9d004070:	83a20016 	lb	v0,22(sp)
9d004074:	0053182a 	slt	v1,v0,s3
9d004078:	1060fdf3 	beqz	v1,9d003848 <_vfprintf_cdfFnopuxX+0x608>
9d00407c:	0262182a 	slt	v1,s3,v0
9d004080:	7c131420 	seb	v0,s3
9d004084:	0b400e13 	j	9d00384c <_vfprintf_cdfFnopuxX+0x60c>
9d004088:	a3a20016 	sb	v0,22(sp)
9d00408c:	a3a20016 	sb	v0,22(sp)
9d004090:	1440ff15 	bnez	v0,9d003ce8 <_vfprintf_cdfFnopuxX+0xaa8>
9d004094:	0262a023 	subu	s4,s3,v0
9d004098:	2402ffff 	li	v0,-1
9d00409c:	0b400f70 	j	9d003dc0 <_vfprintf_cdfFnopuxX+0xb80>
9d0040a0:	a3a20016 	sb	v0,22(sp)
9d0040a4:	32de0008 	andi	s8,s6,0x8
9d0040a8:	33deffff 	andi	s8,s8,0xffff
9d0040ac:	17c0000b 	bnez	s8,9d0040dc <_vfprintf_cdfFnopuxX+0xe9c>
9d0040b0:	afbe0018 	sw	s8,24(sp)
9d0040b4:	1ae0000a 	blez	s7,9d0040e0 <_vfprintf_cdfFnopuxX+0xea0>
9d0040b8:	32c20002 	andi	v0,s6,0x2
9d0040bc:	24040020 	li	a0,32
9d0040c0:	0f402135 	jal	9d0084d4 <.LFE0>
9d0040c4:	02402821 	move	a1,s2
9d0040c8:	00021027 	nor	v0,zero,v0
9d0040cc:	0002102b 	sltu	v0,zero,v0
9d0040d0:	26f7ffff 	addiu	s7,s7,-1
9d0040d4:	16e0fff9 	bnez	s7,9d0040bc <_vfprintf_cdfFnopuxX+0xe7c>
9d0040d8:	02028021 	addu	s0,s0,v0
9d0040dc:	32c20002 	andi	v0,s6,0x2
9d0040e0:	504000c0 	beqzl	v0,9d0043e4 <_vfprintf_cdfFnopuxX+0x11a4>
9d0040e4:	32d60001 	andi	s6,s6,0x1
9d0040e8:	32c40001 	andi	a0,s6,0x1
9d0040ec:	2402002b 	li	v0,43
9d0040f0:	2403002d 	li	v1,45
9d0040f4:	0064100b 	movn	v0,v1,a0
9d0040f8:	00402021 	move	a0,v0
9d0040fc:	0f402135 	jal	9d0084d4 <.LFE0>
9d004100:	02402821 	move	a1,s2
9d004104:	00021027 	nor	v0,zero,v0
9d004108:	0002102b 	sltu	v0,zero,v0
9d00410c:	0b400f0d 	j	9d003c34 <_vfprintf_cdfFnopuxX+0x9f4>
9d004110:	02028021 	addu	s0,s0,v0
9d004114:	1060001c 	beqz	v1,9d004188 <_vfprintf_cdfFnopuxX+0xf48>
9d004118:	02e2b823 	subu	s7,s7,v0
9d00411c:	32c20002 	andi	v0,s6,0x2
9d004120:	104000d5 	beqz	v0,9d004478 <_vfprintf_cdfFnopuxX+0x1238>
9d004124:	32c20001 	andi	v0,s6,0x1
9d004128:	32c40001 	andi	a0,s6,0x1
9d00412c:	2402002d 	li	v0,45
9d004130:	2403002b 	li	v1,43
9d004134:	0064100a 	movz	v0,v1,a0
9d004138:	00402021 	move	a0,v0
9d00413c:	0f402135 	jal	9d0084d4 <.LFE0>
9d004140:	02402821 	move	a1,s2
9d004144:	00021027 	nor	v0,zero,v0
9d004148:	0002102b 	sltu	v0,zero,v0
9d00414c:	02028021 	addu	s0,s0,v0
9d004150:	12e0000a 	beqz	s7,9d00417c <_vfprintf_cdfFnopuxX+0xf3c>
9d004154:	32c20008 	andi	v0,s6,0x8
9d004158:	24040030 	li	a0,48
9d00415c:	0f402135 	jal	9d0084d4 <.LFE0>
9d004160:	02402821 	move	a1,s2
9d004164:	00021027 	nor	v0,zero,v0
9d004168:	0002102b 	sltu	v0,zero,v0
9d00416c:	26f7ffff 	addiu	s7,s7,-1
9d004170:	16e0fff9 	bnez	s7,9d004158 <_vfprintf_cdfFnopuxX+0xf18>
9d004174:	02028021 	addu	s0,s0,v0
9d004178:	32c20008 	andi	v0,s6,0x8
9d00417c:	3042ffff 	andi	v0,v0,0xffff
9d004180:	0b401075 	j	9d0041d4 <_vfprintf_cdfFnopuxX+0xf94>
9d004184:	afa20028 	sw	v0,40(sp)
9d004188:	32c20008 	andi	v0,s6,0x8
9d00418c:	3042ffff 	andi	v0,v0,0xffff
9d004190:	12e00003 	beqz	s7,9d0041a0 <_vfprintf_cdfFnopuxX+0xf60>
9d004194:	afa20028 	sw	v0,40(sp)
9d004198:	10400045 	beqz	v0,9d0042b0 <_vfprintf_cdfFnopuxX+0x1070>
9d00419c:	24040020 	li	a0,32
9d0041a0:	32c20002 	andi	v0,s6,0x2
9d0041a4:	104000b0 	beqz	v0,9d004468 <_vfprintf_cdfFnopuxX+0x1228>
9d0041a8:	32c20001 	andi	v0,s6,0x1
9d0041ac:	32c40001 	andi	a0,s6,0x1
9d0041b0:	2402002d 	li	v0,45
9d0041b4:	2403002b 	li	v1,43
9d0041b8:	0064100a 	movz	v0,v1,a0
9d0041bc:	00402021 	move	a0,v0
9d0041c0:	0f402135 	jal	9d0084d4 <.LFE0>
9d0041c4:	02402821 	move	a1,s2
9d0041c8:	00021027 	nor	v0,zero,v0
9d0041cc:	0002102b 	sltu	v0,zero,v0
9d0041d0:	02028021 	addu	s0,s0,v0
9d0041d4:	2662ffff 	addiu	v0,s3,-1
9d0041d8:	000220c0 	sll	a0,v0,0x3
9d0041dc:	3c039d01 	lui	v1,0x9d01
9d0041e0:	24738fd0 	addiu	s3,v1,-28720
9d0041e4:	00024840 	sll	t1,v0,0x1
9d0041e8:	32c30020 	andi	v1,s6,0x20
9d0041ec:	02649821 	addu	s3,s3,a0
9d0041f0:	afb30018 	sw	s3,24(sp)
9d0041f4:	00029880 	sll	s3,v0,0x2
9d0041f8:	0122b021 	addu	s6,t1,v0
9d0041fc:	001e2040 	sll	a0,s8,0x1
9d004200:	afa4001c 	sw	a0,28(sp)
9d004204:	3063ffff 	andi	v1,v1,0xffff
9d004208:	2402fffd 	li	v0,-3
9d00420c:	12c20018 	beq	s6,v0,9d004270 <_vfprintf_cdfFnopuxX+0x1030>
9d004210:	afa30020 	sw	v1,32(sp)
9d004214:	24020040 	li	v0,64
9d004218:	12820059 	beq	s4,v0,9d004380 <_vfprintf_cdfFnopuxX+0x1140>
9d00421c:	2e820041 	sltiu	v0,s4,65
9d004220:	14400034 	bnez	v0,9d0042f4 <_vfprintf_cdfFnopuxX+0x10b4>
9d004224:	24020080 	li	v0,128
9d004228:	12820043 	beq	s4,v0,9d004338 <_vfprintf_cdfFnopuxX+0x10f8>
9d00422c:	00131827 	nor	v1,zero,s3
9d004230:	240200c0 	li	v0,192
9d004234:	12820032 	beq	s4,v0,9d004300 <_vfprintf_cdfFnopuxX+0x10c0>
9d004238:	8fa50018 	lw	a1,24(sp)
9d00423c:	83a40016 	lb	a0,22(sp)
9d004240:	0f402135 	jal	9d0084d4 <.LFE0>
9d004244:	02402821 	move	a1,s2
9d004248:	00021027 	nor	v0,zero,v0
9d00424c:	0002102b 	sltu	v0,zero,v0
9d004250:	02028021 	addu	s0,s0,v0
9d004254:	8fa70018 	lw	a3,24(sp)
9d004258:	24e7fff8 	addiu	a3,a3,-8
9d00425c:	afa70018 	sw	a3,24(sp)
9d004260:	26d6fffd 	addiu	s6,s6,-3
9d004264:	2402fffd 	li	v0,-3
9d004268:	16c2ffea 	bne	s6,v0,9d004214 <_vfprintf_cdfFnopuxX+0xfd4>
9d00426c:	2673fffc 	addiu	s3,s3,-4
9d004270:	8fa20028 	lw	v0,40(sp)
9d004274:	5040fc04 	beqzl	v0,9d003288 <_vfprintf_cdfFnopuxX+0x48>
9d004278:	82240000 	lb	a0,0(s1)
9d00427c:	5ae0fc02 	blezl	s7,9d003288 <_vfprintf_cdfFnopuxX+0x48>
9d004280:	82240000 	lb	a0,0(s1)
9d004284:	24040020 	li	a0,32
9d004288:	0f402135 	jal	9d0084d4 <.LFE0>
9d00428c:	02402821 	move	a1,s2
9d004290:	00021027 	nor	v0,zero,v0
9d004294:	0002102b 	sltu	v0,zero,v0
9d004298:	26f7ffff 	addiu	s7,s7,-1
9d00429c:	16e0fff9 	bnez	s7,9d004284 <_vfprintf_cdfFnopuxX+0x1044>
9d0042a0:	02028021 	addu	s0,s0,v0
9d0042a4:	0b400ca2 	j	9d003288 <_vfprintf_cdfFnopuxX+0x48>
9d0042a8:	82240000 	lb	a0,0(s1)
9d0042ac:	24040020 	li	a0,32
9d0042b0:	0f402135 	jal	9d0084d4 <.LFE0>
9d0042b4:	02402821 	move	a1,s2
9d0042b8:	00021027 	nor	v0,zero,v0
9d0042bc:	0002102b 	sltu	v0,zero,v0
9d0042c0:	26f7ffff 	addiu	s7,s7,-1
9d0042c4:	12e0ffb6 	beqz	s7,9d0041a0 <_vfprintf_cdfFnopuxX+0xf60>
9d0042c8:	02028021 	addu	s0,s0,v0
9d0042cc:	24040020 	li	a0,32
9d0042d0:	0f402135 	jal	9d0084d4 <.LFE0>
9d0042d4:	02402821 	move	a1,s2
9d0042d8:	00021027 	nor	v0,zero,v0
9d0042dc:	0002102b 	sltu	v0,zero,v0
9d0042e0:	26f7ffff 	addiu	s7,s7,-1
9d0042e4:	16e0fff1 	bnez	s7,9d0042ac <_vfprintf_cdfFnopuxX+0x106c>
9d0042e8:	02028021 	addu	s0,s0,v0
9d0042ec:	0b401069 	j	9d0041a4 <_vfprintf_cdfFnopuxX+0xf64>
9d0042f0:	32c20002 	andi	v0,s6,0x2
9d0042f4:	5680ffd2 	bnezl	s4,9d004240 <_vfprintf_cdfFnopuxX+0x1000>
9d0042f8:	83a40016 	lb	a0,22(sp)
9d0042fc:	8fa50018 	lw	a1,24(sp)
9d004300:	8ca60000 	lw	a2,0(a1)
9d004304:	8ca70004 	lw	a3,4(a1)
9d004308:	02a02021 	move	a0,s5
9d00430c:	0f40177f 	jal	9d005dfc <__udivdi3>
9d004310:	03c02821 	move	a1,s8
9d004314:	00402021 	move	a0,v0
9d004318:	00602821 	move	a1,v1
9d00431c:	2406000a 	li	a2,10
9d004320:	0f401550 	jal	9d005540 <__umoddi3>
9d004324:	00003821 	move	a3,zero
9d004328:	24420030 	addiu	v0,v0,48
9d00432c:	7c022420 	seb	a0,v0
9d004330:	0b401090 	j	9d004240 <_vfprintf_cdfFnopuxX+0x1000>
9d004334:	a3a40016 	sb	a0,22(sp)
9d004338:	8fa6001c 	lw	a2,28(sp)
9d00433c:	00661804 	sllv	v1,a2,v1
9d004340:	02751006 	srlv	v0,s5,s3
9d004344:	32660020 	andi	a2,s3,0x20
9d004348:	00621025 	or	v0,v1,v0
9d00434c:	027e2806 	srlv	a1,s8,s3
9d004350:	3c079d01 	lui	a3,0x9d01
9d004354:	24e39078 	addiu	v1,a3,-28552
9d004358:	3c079d01 	lui	a3,0x9d01
9d00435c:	24e4908c 	addiu	a0,a3,-28532
9d004360:	00a6100b 	movn	v0,a1,a2
9d004364:	8fa50020 	lw	a1,32(sp)
9d004368:	0085180a 	movz	v1,a0,a1
9d00436c:	3042000f 	andi	v0,v0,0xf
9d004370:	00621821 	addu	v1,v1,v0
9d004374:	80640000 	lb	a0,0(v1)
9d004378:	0b401090 	j	9d004240 <_vfprintf_cdfFnopuxX+0x1000>
9d00437c:	a3a40016 	sb	a0,22(sp)
9d004380:	00161027 	nor	v0,zero,s6
9d004384:	8fa6001c 	lw	a2,28(sp)
9d004388:	00461004 	sllv	v0,a2,v0
9d00438c:	02d52006 	srlv	a0,s5,s6
9d004390:	32c30020 	andi	v1,s6,0x20
9d004394:	00442025 	or	a0,v0,a0
9d004398:	02de1006 	srlv	v0,s8,s6
9d00439c:	0043200b 	movn	a0,v0,v1
9d0043a0:	30840007 	andi	a0,a0,0x7
9d0043a4:	24840030 	addiu	a0,a0,48
9d0043a8:	0b401090 	j	9d004240 <_vfprintf_cdfFnopuxX+0x1000>
9d0043ac:	a3a40016 	sb	a0,22(sp)
9d0043b0:	02a4282b 	sltu	a1,s5,a0
9d0043b4:	10a00044 	beqz	a1,9d0044c8 <_vfprintf_cdfFnopuxX+0x1288>
9d0043b8:	00043f42 	srl	a3,a0,0x1d
9d0043bc:	a3a60016 	sb	a2,22(sp)
9d0043c0:	0b40101d 	j	9d004074 <_vfprintf_cdfFnopuxX+0xe34>
9d0043c4:	00c01021 	move	v0,a2
9d0043c8:	8fa50068 	lw	a1,104(sp)
9d0043cc:	8cb30000 	lw	s3,0(a1)
9d0043d0:	82220002 	lb	v0,2(s1)
9d0043d4:	24a50004 	addiu	a1,a1,4
9d0043d8:	afa50068 	sw	a1,104(sp)
9d0043dc:	0b400cfc 	j	9d0033f0 <_vfprintf_cdfFnopuxX+0x1b0>
9d0043e0:	26310002 	addiu	s1,s1,2
9d0043e4:	52c0fe14 	beqzl	s6,9d003c38 <_vfprintf_cdfFnopuxX+0x9f8>
9d0043e8:	3c049d01 	lui	a0,0x9d01
9d0043ec:	0b40103f 	j	9d0040fc <_vfprintf_cdfFnopuxX+0xebc>
9d0043f0:	24040020 	li	a0,32
9d0043f4:	13c00091 	beqz	s8,9d00463c <_vfprintf_cdfFnopuxX+0x13fc>
9d0043f8:	a3a20016 	sb	v0,22(sp)
9d0043fc:	24030003 	li	v1,3
9d004400:	24060002 	li	a2,2
9d004404:	24040100 	li	a0,256
9d004408:	00001021 	move	v0,zero
9d00440c:	0b401106 	j	9d004418 <_vfprintf_cdfFnopuxX+0x11d8>
9d004410:	240a0011 	li	t2,17
9d004414:	00a03021 	move	a2,a1
9d004418:	03c2282b 	sltu	a1,s8,v0
9d00441c:	54a0ffe8 	bnezl	a1,9d0043c0 <_vfprintf_cdfFnopuxX+0x1180>
9d004420:	a3a60016 	sb	a2,22(sp)
9d004424:	105e006b 	beq	v0,s8,9d0045d4 <_vfprintf_cdfFnopuxX+0x1394>
9d004428:	02a4282b 	sltu	a1,s5,a0
9d00442c:	24690001 	addiu	t1,v1,1
9d004430:	00043f02 	srl	a3,a0,0x1c
9d004434:	00023100 	sll	a2,v0,0x4
9d004438:	7c032c20 	seb	a1,v1
9d00443c:	312300ff 	andi	v1,t1,0xff
9d004440:	00e61025 	or	v0,a3,a2
9d004444:	146afff3 	bne	v1,t2,9d004414 <_vfprintf_cdfFnopuxX+0x11d4>
9d004448:	00042100 	sll	a0,a0,0x4
9d00444c:	a3a50016 	sb	a1,22(sp)
9d004450:	0b40101d 	j	9d004074 <_vfprintf_cdfFnopuxX+0xe34>
9d004454:	00a01021 	move	v0,a1
9d004458:	1040fde9 	beqz	v0,9d003c00 <_vfprintf_cdfFnopuxX+0x9c0>
9d00445c:	24040020 	li	a0,32
9d004460:	0b400efb 	j	9d003bec <_vfprintf_cdfFnopuxX+0x9ac>
9d004464:	00000000 	nop
9d004468:	1040ff5b 	beqz	v0,9d0041d8 <_vfprintf_cdfFnopuxX+0xf98>
9d00446c:	2662ffff 	addiu	v0,s3,-1
9d004470:	0b401070 	j	9d0041c0 <_vfprintf_cdfFnopuxX+0xf80>
9d004474:	24040020 	li	a0,32
9d004478:	1040ff35 	beqz	v0,9d004150 <_vfprintf_cdfFnopuxX+0xf10>
9d00447c:	24040020 	li	a0,32
9d004480:	0b40104f 	j	9d00413c <_vfprintf_cdfFnopuxX+0xefc>
9d004484:	00000000 	nop
9d004488:	24020001 	li	v0,1
9d00448c:	13c00066 	beqz	s8,9d004628 <_vfprintf_cdfFnopuxX+0x13e8>
9d004490:	a3a20016 	sb	v0,22(sp)
9d004494:	24030003 	li	v1,3
9d004498:	24060002 	li	a2,2
9d00449c:	24040040 	li	a0,64
9d0044a0:	00001021 	move	v0,zero
9d0044a4:	0b40112c 	j	9d0044b0 <_vfprintf_cdfFnopuxX+0x1270>
9d0044a8:	240a0016 	li	t2,22
9d0044ac:	00a03021 	move	a2,a1
9d0044b0:	03c2282b 	sltu	a1,s8,v0
9d0044b4:	54a0ffc2 	bnezl	a1,9d0043c0 <_vfprintf_cdfFnopuxX+0x1180>
9d0044b8:	a3a60016 	sb	a2,22(sp)
9d0044bc:	105effbc 	beq	v0,s8,9d0043b0 <_vfprintf_cdfFnopuxX+0x1170>
9d0044c0:	24690001 	addiu	t1,v1,1
9d0044c4:	00043f42 	srl	a3,a0,0x1d
9d0044c8:	000230c0 	sll	a2,v0,0x3
9d0044cc:	7c032c20 	seb	a1,v1
9d0044d0:	312300ff 	andi	v1,t1,0xff
9d0044d4:	00e61025 	or	v0,a3,a2
9d0044d8:	146afff4 	bne	v1,t2,9d0044ac <_vfprintf_cdfFnopuxX+0x126c>
9d0044dc:	000420c0 	sll	a0,a0,0x3
9d0044e0:	a3a50016 	sb	a1,22(sp)
9d0044e4:	0b40101d 	j	9d004074 <_vfprintf_cdfFnopuxX+0xe34>
9d0044e8:	00a01021 	move	v0,a1
9d0044ec:	8fa50068 	lw	a1,104(sp)
9d0044f0:	24a30007 	addiu	v1,a1,7
9d0044f4:	2402fff8 	li	v0,-8
9d0044f8:	00621024 	and	v0,v1,v0
9d0044fc:	24460008 	addiu	a2,v0,8
9d004500:	afa60068 	sw	a2,104(sp)
9d004504:	8c550000 	lw	s5,0(v0)
9d004508:	0b400dea 	j	9d0037a8 <_vfprintf_cdfFnopuxX+0x568>
9d00450c:	8c5e0004 	lw	s8,4(v0)
9d004510:	24e30007 	addiu	v1,a3,7
9d004514:	2402fff8 	li	v0,-8
9d004518:	00621824 	and	v1,v1,v0
9d00451c:	8c640004 	lw	a0,4(v1)
9d004520:	8c620000 	lw	v0,0(v1)
9d004524:	24630008 	addiu	v1,v1,8
9d004528:	afa30068 	sw	v1,104(sp)
9d00452c:	00801821 	move	v1,a0
9d004530:	0040a821 	move	s5,v0
9d004534:	0b400de3 	j	9d00378c <_vfprintf_cdfFnopuxX+0x54c>
9d004538:	0080f021 	move	s8,a0
9d00453c:	3c089d01 	lui	t0,0x9d01
9d004540:	25159070 	addiu	s5,t0,-28560
9d004544:	0b400e2d 	j	9d0038b4 <_vfprintf_cdfFnopuxX+0x674>
9d004548:	02a02021 	move	a0,s5
9d00454c:	24020001 	li	v0,1
9d004550:	a3a20016 	sb	v0,22(sp)
9d004554:	0b400ee9 	j	9d003ba4 <_vfprintf_cdfFnopuxX+0x964>
9d004558:	24050001 	li	a1,1
9d00455c:	3c06cccc 	lui	a2,0xcccc
9d004560:	34c6cccd 	ori	a2,a2,0xcccd
9d004564:	02a60019 	multu	s5,a2
9d004568:	00003010 	mfhi	a2
9d00456c:	3c079d01 	lui	a3,0x9d01
9d004570:	24e79940 	addiu	a3,a3,-26304
9d004574:	3c029d01 	lui	v0,0x9d01
9d004578:	8c4590a8 	lw	a1,-28504(v0)
9d00457c:	000630c2 	srl	a2,a2,0x3
9d004580:	24c20009 	addiu	v0,a2,9
9d004584:	00021080 	sll	v0,v0,0x2
9d004588:	00471021 	addu	v0,v0,a3
9d00458c:	8c440000 	lw	a0,0(v0)
9d004590:	afa60030 	sw	a2,48(sp)
9d004594:	0f401edd 	jal	9d007b74 <.LFE4>
9d004598:	afa7002c 	sw	a3,44(sp)
9d00459c:	8fa60030 	lw	a2,48(sp)
9d0045a0:	00062040 	sll	a0,a2,0x1
9d0045a4:	000630c0 	sll	a2,a2,0x3
9d0045a8:	00862021 	addu	a0,a0,a2
9d0045ac:	02a41823 	subu	v1,s5,a0
9d0045b0:	306300ff 	andi	v1,v1,0xff
9d0045b4:	00031880 	sll	v1,v1,0x2
9d0045b8:	8fa7002c 	lw	a3,44(sp)
9d0045bc:	00673821 	addu	a3,v1,a3
9d0045c0:	8ce50000 	lw	a1,0(a3)
9d0045c4:	0f401edd 	jal	9d007b74 <.LFE4>
9d0045c8:	00402021 	move	a0,v0
9d0045cc:	0b400db5 	j	9d0036d4 <_vfprintf_cdfFnopuxX+0x494>
9d0045d0:	00402821 	move	a1,v0
9d0045d4:	10a0ff96 	beqz	a1,9d004430 <_vfprintf_cdfFnopuxX+0x11f0>
9d0045d8:	24690001 	addiu	t1,v1,1
9d0045dc:	a3a60016 	sb	a2,22(sp)
9d0045e0:	0b40101d 	j	9d004074 <_vfprintf_cdfFnopuxX+0xe34>
9d0045e4:	00c01021 	move	v0,a2
9d0045e8:	02a4202b 	sltu	a0,s5,a0
9d0045ec:	1080fc8d 	beqz	a0,9d003824 <_vfprintf_cdfFnopuxX+0x5e4>
9d0045f0:	24450001 	addiu	a1,v0,1
9d0045f4:	a3a60016 	sb	a2,22(sp)
9d0045f8:	0b40101d 	j	9d004074 <_vfprintf_cdfFnopuxX+0xe34>
9d0045fc:	00c01021 	move	v0,a2
9d004600:	0b400da2 	j	9d003688 <_vfprintf_cdfFnopuxX+0x448>
9d004604:	27deffff 	addiu	s8,s8,-1
9d004608:	afa50068 	sw	a1,104(sp)
9d00460c:	0b400e36 	j	9d0038d8 <_vfprintf_cdfFnopuxX+0x698>
9d004610:	0000a021 	move	s4,zero
9d004614:	2ea2000a 	sltiu	v0,s5,10
9d004618:	1040fc75 	beqz	v0,9d0037f0 <_vfprintf_cdfFnopuxX+0x5b0>
9d00461c:	3c039d01 	lui	v1,0x9d01
9d004620:	0b40101d 	j	9d004074 <_vfprintf_cdfFnopuxX+0xe34>
9d004624:	24020001 	li	v0,1
9d004628:	2ea20008 	sltiu	v0,s5,8
9d00462c:	1040ff9a 	beqz	v0,9d004498 <_vfprintf_cdfFnopuxX+0x1258>
9d004630:	24030003 	li	v1,3
9d004634:	0b40101d 	j	9d004074 <_vfprintf_cdfFnopuxX+0xe34>
9d004638:	24020001 	li	v0,1
9d00463c:	2ea20010 	sltiu	v0,s5,16
9d004640:	1040ff6f 	beqz	v0,9d004400 <_vfprintf_cdfFnopuxX+0x11c0>
9d004644:	24030003 	li	v1,3
9d004648:	0b40101d 	j	9d004074 <_vfprintf_cdfFnopuxX+0xe34>
9d00464c:	24020001 	li	v0,1
9d004650:	3042ffff 	andi	v0,v0,0xffff
9d004654:	afa20028 	sw	v0,40(sp)
9d004658:	0b401068 	j	9d0041a0 <_vfprintf_cdfFnopuxX+0xf60>
9d00465c:	0000b821 	move	s7,zero

Disassembly of section .text._vfscanf_cdfFnopuxX:

9d004660 <_vfscanf_cdfFnopuxX>:
9d004660:	27bdff78 	addiu	sp,sp,-136
9d004664:	afbf0084 	sw	ra,132(sp)
9d004668:	afbe0080 	sw	s8,128(sp)
9d00466c:	afb7007c 	sw	s7,124(sp)
9d004670:	afb60078 	sw	s6,120(sp)
9d004674:	afb50074 	sw	s5,116(sp)
9d004678:	afb40070 	sw	s4,112(sp)
9d00467c:	afb3006c 	sw	s3,108(sp)
9d004680:	afb20068 	sw	s2,104(sp)
9d004684:	afb10064 	sw	s1,100(sp)
9d004688:	afb00060 	sw	s0,96(sp)
9d00468c:	3c13a000 	lui	s3,0xa000
9d004690:	3c169d01 	lui	s6,0x9d01
9d004694:	26d68cc9 	addiu	s6,s6,-29495
9d004698:	afa60090 	sw	a2,144(sp)
9d00469c:	ae6424f8 	sw	a0,9464(s3)
9d0046a0:	0000a021 	move	s4,zero
9d0046a4:	afa00058 	sw	zero,88(sp)
9d0046a8:	90b00000 	lbu	s0,0(a1)
9d0046ac:	1200009a 	beqz	s0,9d004918 <_vfscanf_cdfFnopuxX+0x2b8>
9d0046b0:	24b50001 	addiu	s5,a1,1
9d0046b4:	02d01021 	addu	v0,s6,s0
9d0046b8:	80420000 	lb	v0,0(v0)
9d0046bc:	30420088 	andi	v0,v0,0x88
9d0046c0:	144000a2 	bnez	v0,9d00494c <_vfscanf_cdfFnopuxX+0x2ec>
9d0046c4:	24020025 	li	v0,37
9d0046c8:	1602008b 	bne	s0,v0,9d0048f8 <_vfscanf_cdfFnopuxX+0x298>
9d0046cc:	02a08821 	move	s1,s5
9d0046d0:	80b20001 	lb	s2,1(a1)
9d0046d4:	00008021 	move	s0,zero
9d0046d8:	24030004 	li	v1,4
9d0046dc:	afa30054 	sw	v1,84(sp)
9d0046e0:	afa00050 	sw	zero,80(sp)
9d0046e4:	241e0004 	li	s8,4
9d0046e8:	325200ff 	andi	s2,s2,0xff
9d0046ec:	2e420079 	sltiu	v0,s2,121
9d0046f0:	10400163 	beqz	v0,9d004c80 <_vfscanf_cdfFnopuxX+0x620>
9d0046f4:	26350001 	addiu	s5,s1,1
9d0046f8:	00121080 	sll	v0,s2,0x2
9d0046fc:	3c049d00 	lui	a0,0x9d00
9d004700:	24844714 	addiu	a0,a0,18196
9d004704:	00821021 	addu	v0,a0,v0
9d004708:	8c420000 	lw	v0,0(v0)
9d00470c:	00400008 	jr	v0
9d004710:	00000000 	nop
9d004714:	9d00495c 	0x9d00495c
9d004718:	9d004c80 	0x9d004c80
9d00471c:	9d004c80 	0x9d004c80
9d004720:	9d004c80 	0x9d004c80
9d004724:	9d004c80 	0x9d004c80
9d004728:	9d004c80 	0x9d004c80
9d00472c:	9d004c80 	0x9d004c80
9d004730:	9d004c80 	0x9d004c80
9d004734:	9d004c80 	0x9d004c80
9d004738:	9d004c80 	0x9d004c80
9d00473c:	9d004c80 	0x9d004c80
9d004740:	9d004c80 	0x9d004c80
9d004744:	9d004c80 	0x9d004c80
9d004748:	9d004c80 	0x9d004c80
9d00474c:	9d004c80 	0x9d004c80
9d004750:	9d004c80 	0x9d004c80
9d004754:	9d004c80 	0x9d004c80
9d004758:	9d004c80 	0x9d004c80
9d00475c:	9d004c80 	0x9d004c80
9d004760:	9d004c80 	0x9d004c80
9d004764:	9d004c80 	0x9d004c80
9d004768:	9d004c80 	0x9d004c80
9d00476c:	9d004c80 	0x9d004c80
9d004770:	9d004c80 	0x9d004c80
9d004774:	9d004c80 	0x9d004c80
9d004778:	9d004c80 	0x9d004c80
9d00477c:	9d004c80 	0x9d004c80
9d004780:	9d004c80 	0x9d004c80
9d004784:	9d004c80 	0x9d004c80
9d004788:	9d004c80 	0x9d004c80
9d00478c:	9d004c80 	0x9d004c80
9d004790:	9d004c80 	0x9d004c80
9d004794:	9d004c80 	0x9d004c80
9d004798:	9d004c80 	0x9d004c80
9d00479c:	9d004c80 	0x9d004c80
9d0047a0:	9d004c80 	0x9d004c80
9d0047a4:	9d004c80 	0x9d004c80
9d0047a8:	9d004c80 	0x9d004c80
9d0047ac:	9d004c80 	0x9d004c80
9d0047b0:	9d004c80 	0x9d004c80
9d0047b4:	9d004c80 	0x9d004c80
9d0047b8:	9d004c80 	0x9d004c80
9d0047bc:	9d004d78 	0x9d004d78
9d0047c0:	9d004c80 	0x9d004c80
9d0047c4:	9d004c80 	0x9d004c80
9d0047c8:	9d004c80 	0x9d004c80
9d0047cc:	9d004c80 	0x9d004c80
9d0047d0:	9d004c80 	0x9d004c80
9d0047d4:	9d004c80 	0x9d004c80
9d0047d8:	9d004c80 	0x9d004c80
9d0047dc:	9d004c80 	0x9d004c80
9d0047e0:	9d004c80 	0x9d004c80
9d0047e4:	9d004c80 	0x9d004c80
9d0047e8:	9d004c80 	0x9d004c80
9d0047ec:	9d004c80 	0x9d004c80
9d0047f0:	9d004c80 	0x9d004c80
9d0047f4:	9d004c80 	0x9d004c80
9d0047f8:	9d004c80 	0x9d004c80
9d0047fc:	9d004c80 	0x9d004c80
9d004800:	9d004c80 	0x9d004c80
9d004804:	9d004c80 	0x9d004c80
9d004808:	9d004c80 	0x9d004c80
9d00480c:	9d004c80 	0x9d004c80
9d004810:	9d004c80 	0x9d004c80
9d004814:	9d004c80 	0x9d004c80
9d004818:	9d004c80 	0x9d004c80
9d00481c:	9d004c80 	0x9d004c80
9d004820:	9d004c80 	0x9d004c80
9d004824:	9d004c80 	0x9d004c80
9d004828:	9d004ce4 	0x9d004ce4
9d00482c:	9d004c80 	0x9d004c80
9d004830:	9d004ce4 	0x9d004ce4
9d004834:	9d004c80 	0x9d004c80
9d004838:	9d004c80 	0x9d004c80
9d00483c:	9d004c80 	0x9d004c80
9d004840:	9d004c80 	0x9d004c80
9d004844:	9d004d94 	0x9d004d94
9d004848:	9d004c80 	0x9d004c80
9d00484c:	9d004c80 	0x9d004c80
9d004850:	9d004c80 	0x9d004c80
9d004854:	9d004c80 	0x9d004c80
9d004858:	9d004c80 	0x9d004c80
9d00485c:	9d004c80 	0x9d004c80
9d004860:	9d004c80 	0x9d004c80
9d004864:	9d004c80 	0x9d004c80
9d004868:	9d004c80 	0x9d004c80
9d00486c:	9d004c80 	0x9d004c80
9d004870:	9d004c80 	0x9d004c80
9d004874:	9d004c08 	0x9d004c08
9d004878:	9d004c80 	0x9d004c80
9d00487c:	9d004c80 	0x9d004c80
9d004880:	9d004c80 	0x9d004c80
9d004884:	9d004c80 	0x9d004c80
9d004888:	9d004c80 	0x9d004c80
9d00488c:	9d004c80 	0x9d004c80
9d004890:	9d004c80 	0x9d004c80
9d004894:	9d004c80 	0x9d004c80
9d004898:	9d004c80 	0x9d004c80
9d00489c:	9d004c80 	0x9d004c80
9d0048a0:	9d004c1c 	0x9d004c1c
9d0048a4:	9d004c14 	0x9d004c14
9d0048a8:	9d004ce4 	0x9d004ce4
9d0048ac:	9d004ce4 	0x9d004ce4
9d0048b0:	9d004ce4 	0x9d004ce4
9d0048b4:	9d004c60 	0x9d004c60
9d0048b8:	9d004c14 	0x9d004c14
9d0048bc:	9d004c80 	0x9d004c80
9d0048c0:	9d004c80 	0x9d004c80
9d0048c4:	9d004d94 	0x9d004d94
9d0048c8:	9d004c80 	0x9d004c80
9d0048cc:	9d004c80 	0x9d004c80
9d0048d0:	9d0049a8 	0x9d0049a8
9d0048d4:	9d004c80 	0x9d004c80
9d0048d8:	9d004c80 	0x9d004c80
9d0048dc:	9d004c80 	0x9d004c80
9d0048e0:	9d004b54 	0x9d004b54
9d0048e4:	9d004c80 	0x9d004c80
9d0048e8:	9d004c14 	0x9d004c14
9d0048ec:	9d004c80 	0x9d004c80
9d0048f0:	9d004c80 	0x9d004c80
9d0048f4:	9d004ac8 	0x9d004ac8
9d0048f8:	0f4022f1 	jal	9d008bc4 <fgetc>
9d0048fc:	8e6424f8 	lw	a0,9464(s3)
9d004900:	16020152 	bne	s0,v0,9d004e4c <_vfscanf_cdfFnopuxX+0x7ec>
9d004904:	2403ffff 	li	v1,-1
9d004908:	02a02821 	move	a1,s5
9d00490c:	90b00000 	lbu	s0,0(a1)
9d004910:	1600ff68 	bnez	s0,9d0046b4 <_vfscanf_cdfFnopuxX+0x54>
9d004914:	24b50001 	addiu	s5,a1,1
9d004918:	8fa20058 	lw	v0,88(sp)
9d00491c:	8fbf0084 	lw	ra,132(sp)
9d004920:	8fbe0080 	lw	s8,128(sp)
9d004924:	8fb7007c 	lw	s7,124(sp)
9d004928:	8fb60078 	lw	s6,120(sp)
9d00492c:	8fb50074 	lw	s5,116(sp)
9d004930:	8fb40070 	lw	s4,112(sp)
9d004934:	8fb3006c 	lw	s3,108(sp)
9d004938:	8fb20068 	lw	s2,104(sp)
9d00493c:	8fb10064 	lw	s1,100(sp)
9d004940:	8fb00060 	lw	s0,96(sp)
9d004944:	03e00008 	jr	ra
9d004948:	27bd0088 	addiu	sp,sp,136
9d00494c:	0f402675 	jal	9d0099d4 <wspace>
9d004950:	00000000 	nop
9d004954:	0b401243 	j	9d00490c <_vfscanf_cdfFnopuxX+0x2ac>
9d004958:	02a02821 	move	a1,s5
9d00495c:	8fa40058 	lw	a0,88(sp)
9d004960:	14800140 	bnez	a0,9d004e64 <_vfscanf_cdfFnopuxX+0x804>
9d004964:	00801021 	move	v0,a0
9d004968:	8e6224f8 	lw	v0,9464(s3)
9d00496c:	9442000c 	lhu	v0,12(v0)
9d004970:	7c420100 	ext	v0,v0,0x4,0x1
9d004974:	00021023 	negu	v0,v0
9d004978:	8fbf0084 	lw	ra,132(sp)
9d00497c:	8fbe0080 	lw	s8,128(sp)
9d004980:	8fb7007c 	lw	s7,124(sp)
9d004984:	8fb60078 	lw	s6,120(sp)
9d004988:	8fb50074 	lw	s5,116(sp)
9d00498c:	8fb40070 	lw	s4,112(sp)
9d004990:	8fb3006c 	lw	s3,108(sp)
9d004994:	8fb20068 	lw	s2,104(sp)
9d004998:	8fb10064 	lw	s1,100(sp)
9d00499c:	8fb00060 	lw	s0,96(sp)
9d0049a0:	03e00008 	jr	ra
9d0049a4:	27bd0088 	addiu	sp,sp,136
9d0049a8:	24120008 	li	s2,8
9d0049ac:	0f402675 	jal	9d0099d4 <wspace>
9d0049b0:	00000000 	nop
9d0049b4:	8e6424f8 	lw	a0,9464(s3)
9d0049b8:	0f4022f1 	jal	9d008bc4 <fgetc>
9d0049bc:	afa0005c 	sw	zero,92(sp)
9d0049c0:	00408821 	move	s1,v0
9d0049c4:	2402002d 	li	v0,45
9d0049c8:	1222004a 	beq	s1,v0,9d004af4 <_vfscanf_cdfFnopuxX+0x494>
9d0049cc:	3c03a000 	lui	v1,0xa000
9d0049d0:	02202021 	move	a0,s1
9d0049d4:	02402821 	move	a1,s2
9d0049d8:	0f4024c3 	jal	9d00930c <range>
9d0049dc:	02803021 	move	a2,s4
9d0049e0:	240300ff 	li	v1,255
9d0049e4:	10430050 	beq	v0,v1,9d004b28 <_vfscanf_cdfFnopuxX+0x4c8>
9d0049e8:	8e6524f8 	lw	a1,9464(s3)
9d0049ec:	24020030 	li	v0,48
9d0049f0:	1222013d 	beq	s1,v0,9d004ee8 <_vfscanf_cdfFnopuxX+0x888>
9d0049f4:	00000000 	nop
9d0049f8:	0b40128a 	j	9d004a28 <_vfscanf_cdfFnopuxX+0x3c8>
9d0049fc:	0000f021 	move	s8,zero
9d004a00:	0f4022f1 	jal	9d008bc4 <fgetc>
9d004a04:	8e6424f8 	lw	a0,9464(s3)
9d004a08:	00408821 	move	s1,v0
9d004a0c:	00402021 	move	a0,v0
9d004a10:	02402821 	move	a1,s2
9d004a14:	0f4024c3 	jal	9d00930c <range>
9d004a18:	02803021 	move	a2,s4
9d004a1c:	240300ff 	li	v1,255
9d004a20:	1043000b 	beq	v0,v1,9d004a50 <_vfscanf_cdfFnopuxX+0x3f0>
9d004a24:	02202021 	move	a0,s1
9d004a28:	73d2f002 	mul	s8,s8,s2
9d004a2c:	02202021 	move	a0,s1
9d004a30:	02402821 	move	a1,s2
9d004a34:	0f4024c3 	jal	9d00930c <range>
9d004a38:	02803021 	move	a2,s4
9d004a3c:	2610ffff 	addiu	s0,s0,-1
9d004a40:	7c108420 	seb	s0,s0
9d004a44:	1600ffee 	bnez	s0,9d004a00 <_vfscanf_cdfFnopuxX+0x3a0>
9d004a48:	03c2f021 	addu	s8,s8,v0
9d004a4c:	02202021 	move	a0,s1
9d004a50:	02402821 	move	a1,s2
9d004a54:	0f4024c3 	jal	9d00930c <range>
9d004a58:	02803021 	move	a2,s4
9d004a5c:	240400ff 	li	a0,255
9d004a60:	10440155 	beq	v0,a0,9d004fb8 <_vfscanf_cdfFnopuxX+0x958>
9d004a64:	8e6524f8 	lw	a1,9464(s3)
9d004a68:	001e1023 	negu	v0,s8
9d004a6c:	8fa3005c 	lw	v1,92(sp)
9d004a70:	0043f00b 	movn	s8,v0,v1
9d004a74:	8fa30050 	lw	v1,80(sp)
9d004a78:	1460ffa4 	bnez	v1,9d00490c <_vfscanf_cdfFnopuxX+0x2ac>
9d004a7c:	02a02821 	move	a1,s5
9d004a80:	8fa40058 	lw	a0,88(sp)
9d004a84:	24820001 	addiu	v0,a0,1
9d004a88:	304200ff 	andi	v0,v0,0xff
9d004a8c:	afa20058 	sw	v0,88(sp)
9d004a90:	24020004 	li	v0,4
9d004a94:	8fa30054 	lw	v1,84(sp)
9d004a98:	10620004 	beq	v1,v0,9d004aac <_vfscanf_cdfFnopuxX+0x44c>
9d004a9c:	24020002 	li	v0,2
9d004aa0:	8fa30054 	lw	v1,84(sp)
9d004aa4:	10620148 	beq	v1,v0,9d004fc8 <_vfscanf_cdfFnopuxX+0x968>
9d004aa8:	8fa30090 	lw	v1,144(sp)
9d004aac:	8fa30090 	lw	v1,144(sp)
9d004ab0:	8c620000 	lw	v0,0(v1)
9d004ab4:	24630004 	addiu	v1,v1,4
9d004ab8:	afa30090 	sw	v1,144(sp)
9d004abc:	ac5e0000 	sw	s8,0(v0)
9d004ac0:	0b401243 	j	9d00490c <_vfscanf_cdfFnopuxX+0x2ac>
9d004ac4:	02a02821 	move	a1,s5
9d004ac8:	24120010 	li	s2,16
9d004acc:	0f402675 	jal	9d0099d4 <wspace>
9d004ad0:	0000a021 	move	s4,zero
9d004ad4:	8e6424f8 	lw	a0,9464(s3)
9d004ad8:	0f4022f1 	jal	9d008bc4 <fgetc>
9d004adc:	afa0005c 	sw	zero,92(sp)
9d004ae0:	00408821 	move	s1,v0
9d004ae4:	2402002d 	li	v0,45
9d004ae8:	1622ffba 	bne	s1,v0,9d0049d4 <_vfscanf_cdfFnopuxX+0x374>
9d004aec:	02202021 	move	a0,s1
9d004af0:	3c03a000 	lui	v1,0xa000
9d004af4:	8c6424f8 	lw	a0,9464(v1)
9d004af8:	24030001 	li	v1,1
9d004afc:	0f4022f1 	jal	9d008bc4 <fgetc>
9d004b00:	afa3005c 	sw	v1,92(sp)
9d004b04:	00408821 	move	s1,v0
9d004b08:	02202021 	move	a0,s1
9d004b0c:	02402821 	move	a1,s2
9d004b10:	0f4024c3 	jal	9d00930c <range>
9d004b14:	02803021 	move	a2,s4
9d004b18:	240300ff 	li	v1,255
9d004b1c:	1443ffb4 	bne	v0,v1,9d0049f0 <_vfscanf_cdfFnopuxX+0x390>
9d004b20:	24020030 	li	v0,48
9d004b24:	8e6524f8 	lw	a1,9464(s3)
9d004b28:	0f40260c 	jal	9d009830 <ungetc>
9d004b2c:	02202021 	move	a0,s1
9d004b30:	8fa40058 	lw	a0,88(sp)
9d004b34:	548000cb 	bnezl	a0,9d004e64 <_vfscanf_cdfFnopuxX+0x804>
9d004b38:	00801021 	move	v0,a0
9d004b3c:	3c02a000 	lui	v0,0xa000
9d004b40:	8c4224f8 	lw	v0,9464(v0)
9d004b44:	9442000c 	lhu	v0,12(v0)
9d004b48:	7c420100 	ext	v0,v0,0x4,0x1
9d004b4c:	0b40125e 	j	9d004978 <_vfscanf_cdfFnopuxX+0x318>
9d004b50:	00021023 	negu	v0,v0
9d004b54:	0f402675 	jal	9d0099d4 <wspace>
9d004b58:	00000000 	nop
9d004b5c:	8fa30050 	lw	v1,80(sp)
9d004b60:	106000d4 	beqz	v1,9d004eb4 <_vfscanf_cdfFnopuxX+0x854>
9d004b64:	8fa30090 	lw	v1,144(sp)
9d004b68:	0f4022f1 	jal	9d008bc4 <fgetc>
9d004b6c:	8e6424f8 	lw	a0,9464(s3)
9d004b70:	2403ffff 	li	v1,-1
9d004b74:	504300d8 	beql	v0,v1,9d004ed8 <_vfscanf_cdfFnopuxX+0x878>
9d004b78:	8fa20058 	lw	v0,88(sp)
9d004b7c:	14400012 	bnez	v0,9d004bc8 <_vfscanf_cdfFnopuxX+0x568>
9d004b80:	24430001 	addiu	v1,v0,1
9d004b84:	0b4012fa 	j	9d004be8 <_vfscanf_cdfFnopuxX+0x588>
9d004b88:	8fa30050 	lw	v1,80(sp)
9d004b8c:	1062011d 	beq	v1,v0,9d005004 <_vfscanf_cdfFnopuxX+0x9a4>
9d004b90:	8fa30050 	lw	v1,80(sp)
9d004b94:	14600003 	bnez	v1,9d004ba4 <_vfscanf_cdfFnopuxX+0x544>
9d004b98:	2610ffff 	addiu	s0,s0,-1
9d004b9c:	a2e20000 	sb	v0,0(s7)
9d004ba0:	26f70001 	addiu	s7,s7,1
9d004ba4:	7c108420 	seb	s0,s0
9d004ba8:	1200000f 	beqz	s0,9d004be8 <_vfscanf_cdfFnopuxX+0x588>
9d004bac:	8fa30050 	lw	v1,80(sp)
9d004bb0:	0f4022f1 	jal	9d008bc4 <fgetc>
9d004bb4:	8e6424f8 	lw	a0,9464(s3)
9d004bb8:	24430001 	addiu	v1,v0,1
9d004bbc:	2c640002 	sltiu	a0,v1,2
9d004bc0:	54800009 	bnezl	a0,9d004be8 <_vfscanf_cdfFnopuxX+0x588>
9d004bc4:	8fa30050 	lw	v1,80(sp)
9d004bc8:	3c049d01 	lui	a0,0x9d01
9d004bcc:	24848cc8 	addiu	a0,a0,-29496
9d004bd0:	00831821 	addu	v1,a0,v1
9d004bd4:	80630000 	lb	v1,0(v1)
9d004bd8:	30630088 	andi	v1,v1,0x88
9d004bdc:	5060ffeb 	beqzl	v1,9d004b8c <_vfscanf_cdfFnopuxX+0x52c>
9d004be0:	82230001 	lb	v1,1(s1)
9d004be4:	8fa30050 	lw	v1,80(sp)
9d004be8:	1460ff48 	bnez	v1,9d00490c <_vfscanf_cdfFnopuxX+0x2ac>
9d004bec:	02a02821 	move	a1,s5
9d004bf0:	8fa40058 	lw	a0,88(sp)
9d004bf4:	24820001 	addiu	v0,a0,1
9d004bf8:	304200ff 	andi	v0,v0,0xff
9d004bfc:	afa20058 	sw	v0,88(sp)
9d004c00:	0b401243 	j	9d00490c <_vfscanf_cdfFnopuxX+0x2ac>
9d004c04:	a2e00000 	sb	zero,0(s7)
9d004c08:	24120010 	li	s2,16
9d004c0c:	0b40126b 	j	9d0049ac <_vfscanf_cdfFnopuxX+0x34c>
9d004c10:	24140001 	li	s4,1
9d004c14:	0b40126b 	j	9d0049ac <_vfscanf_cdfFnopuxX+0x34c>
9d004c18:	2412000a 	li	s2,10
9d004c1c:	8fa30050 	lw	v1,80(sp)
9d004c20:	1060009c 	beqz	v1,9d004e94 <_vfscanf_cdfFnopuxX+0x834>
9d004c24:	8fa40058 	lw	a0,88(sp)
9d004c28:	2411ffff 	li	s1,-1
9d004c2c:	0f4022f1 	jal	9d008bc4 <fgetc>
9d004c30:	8e6424f8 	lw	a0,9464(s3)
9d004c34:	10510087 	beq	v0,s1,9d004e54 <_vfscanf_cdfFnopuxX+0x7f4>
9d004c38:	8fa30050 	lw	v1,80(sp)
9d004c3c:	14600003 	bnez	v1,9d004c4c <_vfscanf_cdfFnopuxX+0x5ec>
9d004c40:	2610ffff 	addiu	s0,s0,-1
9d004c44:	a2e20000 	sb	v0,0(s7)
9d004c48:	26f70001 	addiu	s7,s7,1
9d004c4c:	7c108420 	seb	s0,s0
9d004c50:	1e00fff6 	bgtz	s0,9d004c2c <_vfscanf_cdfFnopuxX+0x5cc>
9d004c54:	02a02821 	move	a1,s5
9d004c58:	0b401244 	j	9d004910 <_vfscanf_cdfFnopuxX+0x2b0>
9d004c5c:	90b00000 	lbu	s0,0(a1)
9d004c60:	82320001 	lb	s2,1(s1)
9d004c64:	24030002 	li	v1,2
9d004c68:	afa30054 	sw	v1,84(sp)
9d004c6c:	02a08821 	move	s1,s5
9d004c70:	325200ff 	andi	s2,s2,0xff
9d004c74:	2e420079 	sltiu	v0,s2,121
9d004c78:	1440fe9f 	bnez	v0,9d0046f8 <_vfscanf_cdfFnopuxX+0x98>
9d004c7c:	26350001 	addiu	s5,s1,1
9d004c80:	02d21021 	addu	v0,s6,s2
9d004c84:	90420000 	lbu	v0,0(v0)
9d004c88:	30420004 	andi	v0,v0,0x4
9d004c8c:	104000e8 	beqz	v0,9d005030 <_vfscanf_cdfFnopuxX+0x9d0>
9d004c90:	00000000 	nop
9d004c94:	0f4024ed 	jal	9d0093b4 <.LFE0>
9d004c98:	02202021 	move	a0,s1
9d004c9c:	82320001 	lb	s2,1(s1)
9d004ca0:	7c028420 	seb	s0,v0
9d004ca4:	3c049d01 	lui	a0,0x9d01
9d004ca8:	24848cc9 	addiu	a0,a0,-29495
9d004cac:	02441021 	addu	v0,s2,a0
9d004cb0:	90420000 	lbu	v0,0(v0)
9d004cb4:	30420004 	andi	v0,v0,0x4
9d004cb8:	1040fe8b 	beqz	v0,9d0046e8 <_vfscanf_cdfFnopuxX+0x88>
9d004cbc:	02a08821 	move	s1,s5
9d004cc0:	26310001 	addiu	s1,s1,1
9d004cc4:	82320000 	lb	s2,0(s1)
9d004cc8:	02d21021 	addu	v0,s6,s2
9d004ccc:	90420000 	lbu	v0,0(v0)
9d004cd0:	30420004 	andi	v0,v0,0x4
9d004cd4:	5440fffb 	bnezl	v0,9d004cc4 <_vfscanf_cdfFnopuxX+0x664>
9d004cd8:	26310001 	addiu	s1,s1,1
9d004cdc:	0b4011bb 	j	9d0046ec <_vfscanf_cdfFnopuxX+0x8c>
9d004ce0:	325200ff 	andi	s2,s2,0xff
9d004ce4:	0f402675 	jal	9d0099d4 <wspace>
9d004ce8:	00000000 	nop
9d004cec:	8e6424f8 	lw	a0,9464(s3)
9d004cf0:	2402003b 	li	v0,59
9d004cf4:	0f4022f1 	jal	9d008bc4 <fgetc>
9d004cf8:	0050800a 	movz	s0,v0,s0
9d004cfc:	2403002d 	li	v1,45
9d004d00:	104300c2 	beq	v0,v1,9d00500c <_vfscanf_cdfFnopuxX+0x9ac>
9d004d04:	3c03a000 	lui	v1,0xa000
9d004d08:	27a30010 	addiu	v1,sp,16
9d004d0c:	afa3005c 	sw	v1,92(sp)
9d004d10:	247e0001 	addiu	s8,v1,1
9d004d14:	00009021 	move	s2,zero
9d004d18:	2411002e 	li	s1,46
9d004d1c:	12000006 	beqz	s0,9d004d38 <_vfscanf_cdfFnopuxX+0x6d8>
9d004d20:	27d7ffff 	addiu	s7,s8,-1
9d004d24:	02c22021 	addu	a0,s6,v0
9d004d28:	90840000 	lbu	a0,0(a0)
9d004d2c:	30840004 	andi	a0,a0,0x4
9d004d30:	14800009 	bnez	a0,9d004d58 <_vfscanf_cdfFnopuxX+0x6f8>
9d004d34:	00000000 	nop
9d004d38:	1640001d 	bnez	s2,9d004db0 <_vfscanf_cdfFnopuxX+0x750>
9d004d3c:	00000000 	nop
9d004d40:	1451001b 	bne	v0,s1,9d004db0 <_vfscanf_cdfFnopuxX+0x750>
9d004d44:	00000000 	nop
9d004d48:	a3d1ffff 	sb	s1,-1(s8)
9d004d4c:	26520001 	addiu	s2,s2,1
9d004d50:	0b401358 	j	9d004d60 <_vfscanf_cdfFnopuxX+0x700>
9d004d54:	325200ff 	andi	s2,s2,0xff
9d004d58:	1051fffc 	beq	v0,s1,9d004d4c <_vfscanf_cdfFnopuxX+0x6ec>
9d004d5c:	a3c2ffff 	sb	v0,-1(s8)
9d004d60:	8e6424f8 	lw	a0,9464(s3)
9d004d64:	0f4022f1 	jal	9d008bc4 <fgetc>
9d004d68:	27de0001 	addiu	s8,s8,1
9d004d6c:	2610ffff 	addiu	s0,s0,-1
9d004d70:	0b401347 	j	9d004d1c <_vfscanf_cdfFnopuxX+0x6bc>
9d004d74:	7c108420 	seb	s0,s0
9d004d78:	8fa30050 	lw	v1,80(sp)
9d004d7c:	24620001 	addiu	v0,v1,1
9d004d80:	82320001 	lb	s2,1(s1)
9d004d84:	304200ff 	andi	v0,v0,0xff
9d004d88:	afa20050 	sw	v0,80(sp)
9d004d8c:	0b4011ba 	j	9d0046e8 <_vfscanf_cdfFnopuxX+0x88>
9d004d90:	02a08821 	move	s1,s5
9d004d94:	8fa30054 	lw	v1,84(sp)
9d004d98:	107effb4 	beq	v1,s8,9d004c6c <_vfscanf_cdfFnopuxX+0x60c>
9d004d9c:	82320001 	lb	s2,1(s1)
9d004da0:	24030008 	li	v1,8
9d004da4:	afa30054 	sw	v1,84(sp)
9d004da8:	0b4011ba 	j	9d0046e8 <_vfscanf_cdfFnopuxX+0x88>
9d004dac:	02a08821 	move	s1,s5
9d004db0:	12000006 	beqz	s0,9d004dcc <_vfscanf_cdfFnopuxX+0x76c>
9d004db4:	02e08821 	move	s1,s7
9d004db8:	2404ffdf 	li	a0,-33
9d004dbc:	00442024 	and	a0,v0,a0
9d004dc0:	24030045 	li	v1,69
9d004dc4:	10830055 	beq	a0,v1,9d004f1c <_vfscanf_cdfFnopuxX+0x8bc>
9d004dc8:	8e6424f8 	lw	a0,9464(s3)
9d004dcc:	2403ffff 	li	v1,-1
9d004dd0:	10430004 	beq	v0,v1,9d004de4 <_vfscanf_cdfFnopuxX+0x784>
9d004dd4:	a2e00000 	sb	zero,0(s7)
9d004dd8:	8e6524f8 	lw	a1,9464(s3)
9d004ddc:	0f40260c 	jal	9d009830 <ungetc>
9d004de0:	00402021 	move	a0,v0
9d004de4:	8fa3005c 	lw	v1,92(sp)
9d004de8:	1077fedc 	beq	v1,s7,9d00495c <_vfscanf_cdfFnopuxX+0x2fc>
9d004dec:	8fa30050 	lw	v1,80(sp)
9d004df0:	1460fec6 	bnez	v1,9d00490c <_vfscanf_cdfFnopuxX+0x2ac>
9d004df4:	02a02821 	move	a1,s5
9d004df8:	8fa40058 	lw	a0,88(sp)
9d004dfc:	24830001 	addiu	v1,a0,1
9d004e00:	8fa40054 	lw	a0,84(sp)
9d004e04:	2c820005 	sltiu	v0,a0,5
9d004e08:	306300ff 	andi	v1,v1,0xff
9d004e0c:	afa30058 	sw	v1,88(sp)
9d004e10:	14400073 	bnez	v0,9d004fe0 <_vfscanf_cdfFnopuxX+0x980>
9d004e14:	8fa30090 	lw	v1,144(sp)
9d004e18:	8c700000 	lw	s0,0(v1)
9d004e1c:	00002821 	move	a1,zero
9d004e20:	0f402759 	jal	9d009d64 <strtod>
9d004e24:	8fa4005c 	lw	a0,92(sp)
9d004e28:	00402021 	move	a0,v0
9d004e2c:	8fa30090 	lw	v1,144(sp)
9d004e30:	0f402498 	jal	9d009260 <.LFE0>
9d004e34:	24710004 	addiu	s1,v1,4
9d004e38:	ae020000 	sw	v0,0(s0)
9d004e3c:	ae030004 	sw	v1,4(s0)
9d004e40:	afb10090 	sw	s1,144(sp)
9d004e44:	0b401243 	j	9d00490c <_vfscanf_cdfFnopuxX+0x2ac>
9d004e48:	02a02821 	move	a1,s5
9d004e4c:	1443007f 	bne	v0,v1,9d00504c <_vfscanf_cdfFnopuxX+0x9ec>
9d004e50:	3c03a000 	lui	v1,0xa000
9d004e54:	8fa40058 	lw	a0,88(sp)
9d004e58:	1080fec7 	beqz	a0,9d004978 <_vfscanf_cdfFnopuxX+0x318>
9d004e5c:	2402ffff 	li	v0,-1
9d004e60:	00801021 	move	v0,a0
9d004e64:	8fbf0084 	lw	ra,132(sp)
9d004e68:	8fbe0080 	lw	s8,128(sp)
9d004e6c:	8fb7007c 	lw	s7,124(sp)
9d004e70:	8fb60078 	lw	s6,120(sp)
9d004e74:	8fb50074 	lw	s5,116(sp)
9d004e78:	8fb40070 	lw	s4,112(sp)
9d004e7c:	8fb3006c 	lw	s3,108(sp)
9d004e80:	8fb20068 	lw	s2,104(sp)
9d004e84:	8fb10064 	lw	s1,100(sp)
9d004e88:	8fb00060 	lw	s0,96(sp)
9d004e8c:	03e00008 	jr	ra
9d004e90:	27bd0088 	addiu	sp,sp,136
9d004e94:	24820001 	addiu	v0,a0,1
9d004e98:	8fa30090 	lw	v1,144(sp)
9d004e9c:	8c770000 	lw	s7,0(v1)
9d004ea0:	304200ff 	andi	v0,v0,0xff
9d004ea4:	afa20058 	sw	v0,88(sp)
9d004ea8:	24630004 	addiu	v1,v1,4
9d004eac:	0b40130a 	j	9d004c28 <_vfscanf_cdfFnopuxX+0x5c8>
9d004eb0:	afa30090 	sw	v1,144(sp)
9d004eb4:	8c770000 	lw	s7,0(v1)
9d004eb8:	24630004 	addiu	v1,v1,4
9d004ebc:	afa30090 	sw	v1,144(sp)
9d004ec0:	0f4022f1 	jal	9d008bc4 <fgetc>
9d004ec4:	8e6424f8 	lw	a0,9464(s3)
9d004ec8:	2403ffff 	li	v1,-1
9d004ecc:	1443ff2b 	bne	v0,v1,9d004b7c <_vfscanf_cdfFnopuxX+0x51c>
9d004ed0:	00000000 	nop
9d004ed4:	8fa20058 	lw	v0,88(sp)
9d004ed8:	1440fea8 	bnez	v0,9d00497c <_vfscanf_cdfFnopuxX+0x31c>
9d004edc:	8fbf0084 	lw	ra,132(sp)
9d004ee0:	0b40125e 	j	9d004978 <_vfscanf_cdfFnopuxX+0x318>
9d004ee4:	2402ffff 	li	v0,-1
9d004ee8:	0f4022f1 	jal	9d008bc4 <fgetc>
9d004eec:	8e6424f8 	lw	a0,9464(s3)
9d004ef0:	24030078 	li	v1,120
9d004ef4:	1043002a 	beq	v0,v1,9d004fa0 <_vfscanf_cdfFnopuxX+0x940>
9d004ef8:	24030058 	li	v1,88
9d004efc:	1443002a 	bne	v0,v1,9d004fa8 <_vfscanf_cdfFnopuxX+0x948>
9d004f00:	8e6524f8 	lw	a1,9464(s3)
9d004f04:	12800028 	beqz	s4,9d004fa8 <_vfscanf_cdfFnopuxX+0x948>
9d004f08:	00000000 	nop
9d004f0c:	0f4022f1 	jal	9d008bc4 <fgetc>
9d004f10:	8e6424f8 	lw	a0,9464(s3)
9d004f14:	0b40127e 	j	9d0049f8 <_vfscanf_cdfFnopuxX+0x398>
9d004f18:	00408821 	move	s1,v0
9d004f1c:	a2e20000 	sb	v0,0(s7)
9d004f20:	0f4022f1 	jal	9d008bc4 <fgetc>
9d004f24:	321000ff 	andi	s0,s0,0xff
9d004f28:	2603ffff 	addiu	v1,s0,-1
9d004f2c:	7c031c20 	seb	v1,v1
9d004f30:	1060ffa6 	beqz	v1,9d004dcc <_vfscanf_cdfFnopuxX+0x76c>
9d004f34:	26f70001 	addiu	s7,s7,1
9d004f38:	2404002d 	li	a0,45
9d004f3c:	10440048 	beq	v0,a0,9d005060 <_vfscanf_cdfFnopuxX+0xa00>
9d004f40:	2404002b 	li	a0,43
9d004f44:	10440047 	beq	v0,a0,9d005064 <_vfscanf_cdfFnopuxX+0xa04>
9d004f48:	8e6424f8 	lw	a0,9464(s3)
9d004f4c:	02c22021 	addu	a0,s6,v0
9d004f50:	90840000 	lbu	a0,0(a0)
9d004f54:	30840004 	andi	a0,a0,0x4
9d004f58:	1080ff9c 	beqz	a0,9d004dcc <_vfscanf_cdfFnopuxX+0x76c>
9d004f5c:	2463ffff 	addiu	v1,v1,-1
9d004f60:	307000ff 	andi	s0,v1,0xff
9d004f64:	26100001 	addiu	s0,s0,1
9d004f68:	0b4013e0 	j	9d004f80 <_vfscanf_cdfFnopuxX+0x920>
9d004f6c:	02f08021 	addu	s0,s7,s0
9d004f70:	90630000 	lbu	v1,0(v1)
9d004f74:	30630004 	andi	v1,v1,0x4
9d004f78:	1060ff95 	beqz	v1,9d004dd0 <_vfscanf_cdfFnopuxX+0x770>
9d004f7c:	2403ffff 	li	v1,-1
9d004f80:	8e6424f8 	lw	a0,9464(s3)
9d004f84:	26f70001 	addiu	s7,s7,1
9d004f88:	0f4022f1 	jal	9d008bc4 <fgetc>
9d004f8c:	a2e2ffff 	sb	v0,-1(s7)
9d004f90:	56f0fff7 	bnel	s7,s0,9d004f70 <_vfscanf_cdfFnopuxX+0x910>
9d004f94:	02c21821 	addu	v1,s6,v0
9d004f98:	0b401374 	j	9d004dd0 <_vfscanf_cdfFnopuxX+0x770>
9d004f9c:	2403ffff 	li	v1,-1
9d004fa0:	1280ffda 	beqz	s4,9d004f0c <_vfscanf_cdfFnopuxX+0x8ac>
9d004fa4:	8e6524f8 	lw	a1,9464(s3)
9d004fa8:	0f40260c 	jal	9d009830 <ungetc>
9d004fac:	00402021 	move	a0,v0
9d004fb0:	0b40128a 	j	9d004a28 <_vfscanf_cdfFnopuxX+0x3c8>
9d004fb4:	0000f021 	move	s8,zero
9d004fb8:	0f40260c 	jal	9d009830 <ungetc>
9d004fbc:	02202021 	move	a0,s1
9d004fc0:	0b40129b 	j	9d004a6c <_vfscanf_cdfFnopuxX+0x40c>
9d004fc4:	001e1023 	negu	v0,s8
9d004fc8:	8c620000 	lw	v0,0(v1)
9d004fcc:	24630004 	addiu	v1,v1,4
9d004fd0:	afa30090 	sw	v1,144(sp)
9d004fd4:	a45e0000 	sh	s8,0(v0)
9d004fd8:	0b401243 	j	9d00490c <_vfscanf_cdfFnopuxX+0x2ac>
9d004fdc:	02a02821 	move	a1,s5
9d004fe0:	8c710000 	lw	s1,0(v1)
9d004fe4:	8fa4005c 	lw	a0,92(sp)
9d004fe8:	00002821 	move	a1,zero
9d004fec:	0f40277c 	jal	9d009df0 <.LFE1>
9d004ff0:	24700004 	addiu	s0,v1,4
9d004ff4:	ae220000 	sw	v0,0(s1)
9d004ff8:	afb00090 	sw	s0,144(sp)
9d004ffc:	0b401243 	j	9d00490c <_vfscanf_cdfFnopuxX+0x2ac>
9d005000:	02a02821 	move	a1,s5
9d005004:	0b4012f9 	j	9d004be4 <_vfscanf_cdfFnopuxX+0x584>
9d005008:	26350002 	addiu	s5,s1,2
9d00500c:	8c6424f8 	lw	a0,9464(v1)
9d005010:	a3a20010 	sb	v0,16(sp)
9d005014:	27a30010 	addiu	v1,sp,16
9d005018:	0f4022f1 	jal	9d008bc4 <fgetc>
9d00501c:	afa3005c 	sw	v1,92(sp)
9d005020:	2610ffff 	addiu	s0,s0,-1
9d005024:	7c108420 	seb	s0,s0
9d005028:	0b401344 	j	9d004d10 <_vfscanf_cdfFnopuxX+0x6b0>
9d00502c:	27a30011 	addiu	v1,sp,17
9d005030:	0f4022f1 	jal	9d008bc4 <fgetc>
9d005034:	8e6424f8 	lw	a0,9464(s3)
9d005038:	1242fe33 	beq	s2,v0,9d004908 <_vfscanf_cdfFnopuxX+0x2a8>
9d00503c:	2403ffff 	li	v1,-1
9d005040:	5043ffa5 	beql	v0,v1,9d004ed8 <_vfscanf_cdfFnopuxX+0x878>
9d005044:	8fa20058 	lw	v0,88(sp)
9d005048:	3c03a000 	lui	v1,0xa000
9d00504c:	8c6524f8 	lw	a1,9464(v1)
9d005050:	0f40260c 	jal	9d009830 <ungetc>
9d005054:	00402021 	move	a0,v0
9d005058:	0b40125e 	j	9d004978 <_vfscanf_cdfFnopuxX+0x318>
9d00505c:	8fa20058 	lw	v0,88(sp)
9d005060:	8e6424f8 	lw	a0,9464(s3)
9d005064:	a2220001 	sb	v0,1(s1)
9d005068:	0f4022f1 	jal	9d008bc4 <fgetc>
9d00506c:	26370002 	addiu	s7,s1,2
9d005070:	2603fffe 	addiu	v1,s0,-2
9d005074:	7c031c20 	seb	v1,v1
9d005078:	1460ffb5 	bnez	v1,9d004f50 <_vfscanf_cdfFnopuxX+0x8f0>
9d00507c:	02c22021 	addu	a0,s6,v0
9d005080:	0b401374 	j	9d004dd0 <_vfscanf_cdfFnopuxX+0x770>
9d005084:	2403ffff 	li	v1,-1

Disassembly of section .text.dp32mul:

9d005088 <__divdf3>:
9d005088:	00055040 000a5542 00054ac0 00047d42     @P..BU...J..B}..
9d005098:	012f4825 000442c0 3c0e8000 012e4825     %H/..B.....<%H..
9d0050a8:	00076840 000d6d42 000762c0 00067d42     @h..Bm...b..B}..
9d0050b8:	018f6025 00065ac0 018e6025 00a72826     %`...Z..%`..&(..
9d0050c8:	00ae2824 254fffff 2de107fe 102000cb     $(....O%...-.. .
9d0050d8:	00000000                                ....

9d0050dc <Dlab1>:
9d0050dc:	25afffff 	addiu	t7,t5,-1
9d0050e0:	2de107fe 	sltiu	at,t7,2046
9d0050e4:	102000f4 	beqz	at,9d0054b8 <DspecB>
9d0050e8:	00000000 	nop

9d0050ec <Dlab2>:
9d0050ec:	014d5023 	subu	t2,t2,t5
9d0050f0:	254a03ff 	addiu	t2,t2,1023
9d0050f4:	00084042 	srl	t0,t0,0x1
9d0050f8:	00097fc0 	sll	t7,t1,0x1f
9d0050fc:	010f4025 	or	t0,t0,t7
9d005100:	00094842 	srl	t1,t1,0x1
9d005104:	000c3c02 	srl	a3,t4,0x10
9d005108:	00e001f4 	teq	a3,zero,0x7
9d00510c:	0127001b 	divu	zero,t1,a3
9d005110:	00007012 	mflo	t6
9d005114:	00004810 	mfhi	t1
9d005118:	3186ffff 	andi	a2,t4,0xffff
9d00511c:	00ce0019 	multu	a2,t6
9d005120:	00002012 	mflo	a0
9d005124:	00094c00 	sll	t1,t1,0x10
9d005128:	00087c02 	srl	t7,t0,0x10
9d00512c:	012f4825 	or	t1,t1,t7
9d005130:	0124782b 	sltu	t7,t1,a0
9d005134:	11e00006 	beqz	t7,9d005150 <i20>
9d005138:	01244823 	subu	t1,t1,a0

9d00513c <b21>:
9d00513c:	25ceffff 	addiu	t6,t6,-1
9d005140:	012c4821 	addu	t1,t1,t4
9d005144:	012c082b 	sltu	at,t1,t4
9d005148:	1020fffc 	beqz	at,9d00513c <b21>
9d00514c:	00000000 	nop

9d005150 <i20>:
9d005150:	00e001f4 	teq	a3,zero,0x7
9d005154:	0127001b 	divu	zero,t1,a3
9d005158:	00003812 	mflo	a3
9d00515c:	00004810 	mfhi	t1
9d005160:	00c70019 	multu	a2,a3
9d005164:	00002012 	mflo	a0
9d005168:	00094c00 	sll	t1,t1,0x10
9d00516c:	310fffff 	andi	t7,t0,0xffff
9d005170:	012f4825 	or	t1,t1,t7
9d005174:	0124782b 	sltu	t7,t1,a0
9d005178:	11e00006 	beqz	t7,9d005194 <i22>
9d00517c:	01244823 	subu	t1,t1,a0

9d005180 <b23>:
9d005180:	24e7ffff 	addiu	a3,a3,-1
9d005184:	012c4821 	addu	t1,t1,t4
9d005188:	012c082b 	sltu	at,t1,t4
9d00518c:	1020fffc 	beqz	at,9d005180 <b23>
9d005190:	00000000 	nop

9d005194 <i22>:
9d005194:	000e7400 	sll	t6,t6,0x10
9d005198:	01c77021 	addu	t6,t6,a3
9d00519c:	01cb0019 	multu	t6,t3
9d0051a0:	00003812 	mflo	a3
9d0051a4:	00002010 	mfhi	a0
9d0051a8:	24080000 	li	t0,0
9d0051ac:	0107782b 	sltu	t7,t0,a3
9d0051b0:	01074023 	subu	t0,t0,a3
9d0051b4:	012f102b 	sltu	v0,t1,t7
9d0051b8:	012f4823 	subu	t1,t1,t7
9d0051bc:	0124782b 	sltu	t7,t1,a0
9d0051c0:	01e27825 	or	t7,t7,v0
9d0051c4:	11e0000b 	beqz	t7,9d0051f4 <i24>
9d0051c8:	01244823 	subu	t1,t1,a0

9d0051cc <Dlab3>:
9d0051cc:	25ceffff 	addiu	t6,t6,-1
9d0051d0:	010b4021 	addu	t0,t0,t3
9d0051d4:	010b782b 	sltu	t7,t0,t3
9d0051d8:	012c4821 	addu	t1,t1,t4
9d0051dc:	012f4821 	addu	t1,t1,t7
9d0051e0:	112c0002 	beq	t1,t4,9d0051ec <L31>
9d0051e4:	00000000 	nop
9d0051e8:	012c782b 	sltu	t7,t1,t4

9d0051ec <L31>:
9d0051ec:	11e0fff7 	beqz	t7,9d0051cc <Dlab3>
9d0051f0:	00000000 	nop

9d0051f4 <i24>:
9d0051f4:	152c0006 	bne	t1,t4,9d005210 <i25>
9d0051f8:	00000000 	nop
9d0051fc:	000b2025 	or	a0,zero,t3
9d005200:	00084825 	or	t1,zero,t0
9d005204:	240d0000 	li	t5,0
9d005208:	1000002a 	b	9d0052b4 <e25>
9d00520c:	000d3825 	or	a3,zero,t5

9d005210 <i25>:
9d005210:	000c3c02 	srl	a3,t4,0x10
9d005214:	00e001f4 	teq	a3,zero,0x7
9d005218:	0127001b 	divu	zero,t1,a3
9d00521c:	00006812 	mflo	t5
9d005220:	00004810 	mfhi	t1
9d005224:	3186ffff 	andi	a2,t4,0xffff
9d005228:	00cd0019 	multu	a2,t5
9d00522c:	00002012 	mflo	a0
9d005230:	00094c00 	sll	t1,t1,0x10
9d005234:	00087c02 	srl	t7,t0,0x10
9d005238:	012f4825 	or	t1,t1,t7
9d00523c:	0124782b 	sltu	t7,t1,a0
9d005240:	11e00006 	beqz	t7,9d00525c <i26>
9d005244:	01244823 	subu	t1,t1,a0

9d005248 <b27>:
9d005248:	25adffff 	addiu	t5,t5,-1
9d00524c:	012c4821 	addu	t1,t1,t4
9d005250:	012c082b 	sltu	at,t1,t4
9d005254:	1020fffc 	beqz	at,9d005248 <b27>
9d005258:	00000000 	nop

9d00525c <i26>:
9d00525c:	00e001f4 	teq	a3,zero,0x7
9d005260:	0127001b 	divu	zero,t1,a3
9d005264:	00003812 	mflo	a3
9d005268:	00004810 	mfhi	t1
9d00526c:	00c70019 	multu	a2,a3
9d005270:	00002012 	mflo	a0
9d005274:	00094c00 	sll	t1,t1,0x10
9d005278:	310fffff 	andi	t7,t0,0xffff
9d00527c:	012f4825 	or	t1,t1,t7
9d005280:	0124782b 	sltu	t7,t1,a0
9d005284:	11e00006 	beqz	t7,9d0052a0 <i28>
9d005288:	01244823 	subu	t1,t1,a0

9d00528c <b29>:
9d00528c:	24e7ffff 	addiu	a3,a3,-1
9d005290:	012c4821 	addu	t1,t1,t4
9d005294:	012c082b 	sltu	at,t1,t4
9d005298:	1020fffc 	beqz	at,9d00528c <b29>
9d00529c:	00000000 	nop

9d0052a0 <i28>:
9d0052a0:	000d6c00 	sll	t5,t5,0x10
9d0052a4:	01a76821 	addu	t5,t5,a3
9d0052a8:	01ab0019 	multu	t5,t3
9d0052ac:	00003812 	mflo	a3
9d0052b0:	00002010 	mfhi	a0

9d0052b4 <e25>:
9d0052b4:	24080000 	li	t0,0
9d0052b8:	0107782b 	sltu	t7,t0,a3
9d0052bc:	01074023 	subu	t0,t0,a3
9d0052c0:	012f102b 	sltu	v0,t1,t7
9d0052c4:	012f4823 	subu	t1,t1,t7
9d0052c8:	0124782b 	sltu	t7,t1,a0
9d0052cc:	01e27825 	or	t7,t7,v0
9d0052d0:	11e0000b 	beqz	t7,9d005300 <i30>
9d0052d4:	01244823 	subu	t1,t1,a0

9d0052d8 <Dlab4>:
9d0052d8:	25adffff 	addiu	t5,t5,-1
9d0052dc:	010b4021 	addu	t0,t0,t3
9d0052e0:	010b782b 	sltu	t7,t0,t3
9d0052e4:	012c4821 	addu	t1,t1,t4
9d0052e8:	012f4821 	addu	t1,t1,t7
9d0052ec:	112c0002 	beq	t1,t4,9d0052f8 <L32>
9d0052f0:	00000000 	nop
9d0052f4:	012c782b 	sltu	t7,t1,t4

9d0052f8 <L32>:
9d0052f8:	11e0fff7 	beqz	t7,9d0052d8 <Dlab4>
9d0052fc:	00000000 	nop

9d005300 <i30>:
9d005300:	05c00006 	bltz	t6,9d00531c <i31>
9d005304:	00000000 	nop
9d005308:	01a0782a 	slt	t7,t5,zero
9d00530c:	01ad6821 	addu	t5,t5,t5
9d005310:	01ce7021 	addu	t6,t6,t6
9d005314:	01cf7021 	addu	t6,t6,t7
9d005318:	254affff 	addiu	t2,t2,-1

9d00531c <i31>:
9d00531c:	01287825 	or	t7,t1,t0
9d005320:	11e00002 	beqz	t7,9d00532c <i32>
9d005324:	00000000 	nop
9d005328:	35ad0001 	ori	t5,t5,0x1

9d00532c <i32>:
9d00532c:	000e4825 	or	t1,zero,t6
9d005330:	000d4025 	or	t0,zero,t5
9d005334:	254fffff 	addiu	t7,t2,-1
9d005338:	2de107fe 	sltiu	at,t7,2046
9d00533c:	10200015 	beqz	at,9d005394 <Doveund>
9d005340:	00000000 	nop
9d005344:	25080400 	addiu	t0,t0,1024
9d005348:	2d0f0400 	sltiu	t7,t0,1024
9d00534c:	012f4821 	addu	t1,t1,t7
9d005350:	012f782b 	sltu	t7,t1,t7
9d005354:	014f5021 	addu	t2,t2,t7

9d005358 <Dlab8>:
9d005358:	00087ac2 	srl	t7,t0,0xb
9d00535c:	31ef0001 	andi	t7,t7,0x1
9d005360:	010f4023 	subu	t0,t0,t7
9d005364:	000822c2 	srl	a0,t0,0xb
9d005368:	00097d40 	sll	t7,t1,0x15
9d00536c:	008f2025 	or	a0,a0,t7
9d005370:	00097840 	sll	t7,t1,0x1
9d005374:	000f7b02 	srl	t7,t7,0xc
9d005378:	00af2825 	or	a1,a1,t7
9d00537c:	000a7d00 	sll	t7,t2,0x14
9d005380:	00af2825 	or	a1,a1,t7

9d005384 <Dret>:
9d005384:	00041025 	or	v0,zero,a0
9d005388:	00051825 	or	v1,zero,a1

9d00538c <D999>:
9d00538c:	03e00008 	jr	ra
9d005390:	00000000 	nop

9d005394 <Doveund>:
9d005394:	1d400044 	bgtz	t2,9d0054a8 <Dinf>
9d005398:	00000000 	nop
9d00539c:	240e0001 	li	t6,1
9d0053a0:	01ca7023 	subu	t6,t6,t2

9d0053a4 <L33>:
9d0053a4:	2dc10020 	sltiu	at,t6,32
9d0053a8:	14200007 	bnez	at,9d0053c8 <L34>
9d0053ac:	00000000 	nop
9d0053b0:	21ceffe0 	addi	t6,t6,-32
9d0053b4:	0008202b 	sltu	a0,zero,t0
9d0053b8:	1009000d 	beq	zero,t1,9d0053f0 <L35>
9d0053bc:	01244025 	or	t0,t1,a0
9d0053c0:	1000fff8 	b	9d0053a4 <L33>
9d0053c4:	34090000 	li	t1,0x0

9d0053c8 <L34>:
9d0053c8:	11c00009 	beqz	t6,9d0053f0 <L35>
9d0053cc:	00000000 	nop
9d0053d0:	000e3022 	neg	a2,t6
9d0053d4:	00c82004 	sllv	a0,t0,a2
9d0053d8:	00c93004 	sllv	a2,t1,a2
9d0053dc:	01c84006 	srlv	t0,t0,t6
9d0053e0:	01c94806 	srlv	t1,t1,t6
9d0053e4:	10800002 	beqz	a0,9d0053f0 <L35>
9d0053e8:	00c84025 	or	t0,a2,t0
9d0053ec:	35080002 	ori	t0,t0,0x2

9d0053f0 <L35>:
9d0053f0:	25080400 	addiu	t0,t0,1024
9d0053f4:	2d0f0400 	sltiu	t7,t0,1024
9d0053f8:	012f4821 	addu	t1,t1,t7
9d0053fc:	1000ffd6 	b	9d005358 <Dlab8>
9d005400:	000957c2 	srl	t2,t1,0x1f

9d005404 <DspecA>:
9d005404:	0100782a 	slt	t7,t0,zero
9d005408:	01084021 	addu	t0,t0,t0
9d00540c:	01294821 	addu	t1,t1,t1
9d005410:	15400017 	bnez	t2,9d005470 <i33>
9d005414:	012f4821 	addu	t1,t1,t7
9d005418:	01287825 	or	t7,t1,t0
9d00541c:	11e00014 	beqz	t7,9d005470 <i33>
9d005420:	00000000 	nop
9d005424:	15200008 	bnez	t1,9d005448 <L36>
9d005428:	00000000 	nop
9d00542c:	15000003 	bnez	t0,9d00543c <L37>
9d005430:	00000000 	nop
9d005434:	1000ff29 	b	9d0050dc <Dlab1>
9d005438:	240a0000 	li	t2,0

9d00543c <L37>:
9d00543c:	01004825 	move	t1,t0
9d005440:	24080000 	li	t0,0
9d005444:	254affe0 	addiu	t2,t2,-32

9d005448 <L36>:
9d005448:	712e7020 	clz	t6,t1
9d00544c:	11c0ff23 	beqz	t6,9d0050dc <Dlab1>
9d005450:	00000000 	nop
9d005454:	014e5023 	subu	t2,t2,t6
9d005458:	000e3022 	neg	a2,t6
9d00545c:	00c83006 	srlv	a2,t0,a2
9d005460:	01c84004 	sllv	t0,t0,t6
9d005464:	01c94804 	sllv	t1,t1,t6
9d005468:	1000ff1c 	b	9d0050dc <Dlab1>
9d00546c:	01264825 	or	t1,t1,a2

9d005470 <i33>:
9d005470:	154d0005 	bne	t2,t5,9d005488 <i35>
9d005474:	00000000 	nop
9d005478:	000c7840 	sll	t7,t4,0x1
9d00547c:	01eb7825 	or	t7,t7,t3
9d005480:	11e0002b 	beqz	t7,9d005530 <Dnan>
9d005484:	00000000 	nop

9d005488 <i35>:
9d005488:	240107ff 	li	at,2047
9d00548c:	11a1000a 	beq	t5,at,9d0054b8 <DspecB>
9d005490:	00000000 	nop
9d005494:	1140ffbb 	beqz	t2,9d005384 <Dret>
9d005498:	00000000 	nop
9d00549c:	01287825 	or	t7,t1,t0
9d0054a0:	15e00023 	bnez	t7,9d005530 <Dnan>
9d0054a4:	00000000 	nop

9d0054a8 <Dinf>:
9d0054a8:	3c017ff0 	lui	at,0x7ff0
9d0054ac:	00a12825 	or	a1,a1,at
9d0054b0:	1000ffb4 	b	9d005384 <Dret>
9d0054b4:	24040000 	li	a0,0

9d0054b8 <DspecB>:
9d0054b8:	0160782a 	slt	t7,t3,zero
9d0054bc:	016b5821 	addu	t3,t3,t3
9d0054c0:	018c6021 	addu	t4,t4,t4
9d0054c4:	15a00017 	bnez	t5,9d005524 <i36>
9d0054c8:	018f6021 	addu	t4,t4,t7
9d0054cc:	018b7825 	or	t7,t4,t3
9d0054d0:	11e0fff5 	beqz	t7,9d0054a8 <Dinf>
9d0054d4:	00000000 	nop
9d0054d8:	15800008 	bnez	t4,9d0054fc <L39>
9d0054dc:	00000000 	nop
9d0054e0:	15600003 	bnez	t3,9d0054f0 <L40>
9d0054e4:	00000000 	nop
9d0054e8:	1000ff00 	b	9d0050ec <Dlab2>
9d0054ec:	240d0000 	li	t5,0

9d0054f0 <L40>:
9d0054f0:	01606025 	move	t4,t3
9d0054f4:	240b0000 	li	t3,0
9d0054f8:	25adffe0 	addiu	t5,t5,-32

9d0054fc <L39>:
9d0054fc:	718e7020 	clz	t6,t4
9d005500:	11c0fefa 	beqz	t6,9d0050ec <Dlab2>
9d005504:	00000000 	nop
9d005508:	01ae6823 	subu	t5,t5,t6
9d00550c:	000e3022 	neg	a2,t6
9d005510:	00cb3006 	srlv	a2,t3,a2
9d005514:	01cb5804 	sllv	t3,t3,t6
9d005518:	01cc6004 	sllv	t4,t4,t6
9d00551c:	1000fef3 	b	9d0050ec <Dlab2>
9d005520:	01866025 	or	t4,t4,a2

9d005524 <i36>:
9d005524:	018b7825 	or	t7,t4,t3
9d005528:	11e00002 	beqz	t7,9d005534 <i38>
9d00552c:	00000000 	nop

9d005530 <Dnan>:
9d005530:	3c05fff8 	lui	a1,0xfff8

9d005534 <i38>:
9d005534:	1000ff93 	b	9d005384 <Dret>
9d005538:	24040000 	li	a0,0
9d00553c:	00000000 	nop

Disassembly of section .text:

9d005540 <__umoddi3>:
9d005540:	00c04021 	move	t0,a2
9d005544:	00804821 	move	t1,a0
9d005548:	14e0003b 	bnez	a3,9d005638 <__umoddi3+0xf8>
9d00554c:	00a01821 	move	v1,a1
9d005550:	00a6102b 	sltu	v0,a1,a2
9d005554:	10400048 	beqz	v0,9d005678 <__umoddi3+0x138>
9d005558:	70c21020 	clz	v0,a2
9d00555c:	50400008 	beqzl	v0,9d005580 <__umoddi3+0x40>
9d005560:	00083402 	srl	a2,t0,0x10
9d005564:	00021823 	negu	v1,v0
9d005568:	00452804 	sllv	a1,a1,v0
9d00556c:	00641806 	srlv	v1,a0,v1
9d005570:	00464004 	sllv	t0,a2,v0
9d005574:	00651825 	or	v1,v1,a1
9d005578:	00444804 	sllv	t1,a0,v0
9d00557c:	00083402 	srl	a2,t0,0x10
9d005580:	0066001b 	divu	zero,v1,a2
9d005584:	00c001f4 	teq	a2,zero,0x7
9d005588:	00002010 	mfhi	a0
9d00558c:	00005812 	mflo	t3
9d005590:	310cffff 	andi	t4,t0,0xffff
9d005594:	00095402 	srl	t2,t1,0x10
9d005598:	716c5802 	mul	t3,t3,t4
9d00559c:	00042400 	sll	a0,a0,0x10
9d0055a0:	008a5025 	or	t2,a0,t2
9d0055a4:	014b682b 	sltu	t5,t2,t3
9d0055a8:	0066001b 	divu	zero,v1,a2
9d0055ac:	00c001f4 	teq	a2,zero,0x7
9d0055b0:	51a00009 	beqzl	t5,9d0055d8 <__umoddi3+0x98>
9d0055b4:	014b5023 	subu	t2,t2,t3
9d0055b8:	01485021 	addu	t2,t2,t0
9d0055bc:	0148182b 	sltu	v1,t2,t0
9d0055c0:	54600005 	bnezl	v1,9d0055d8 <__umoddi3+0x98>
9d0055c4:	014b5023 	subu	t2,t2,t3
9d0055c8:	014b202b 	sltu	a0,t2,t3
9d0055cc:	01481821 	addu	v1,t2,t0
9d0055d0:	0064500b 	movn	t2,v1,a0
9d0055d4:	014b5023 	subu	t2,t2,t3
9d0055d8:	3123ffff 	andi	v1,t1,0xffff
9d0055dc:	0146001b 	divu	zero,t2,a2
9d0055e0:	00c001f4 	teq	a2,zero,0x7
9d0055e4:	00004810 	mfhi	t1
9d0055e8:	00002012 	mflo	a0
9d0055ec:	708c2002 	mul	a0,a0,t4
9d0055f0:	00094c00 	sll	t1,t1,0x10
9d0055f4:	01234825 	or	t1,t1,v1
9d0055f8:	0124182b 	sltu	v1,t1,a0
9d0055fc:	0146001b 	divu	zero,t2,a2
9d005600:	00c001f4 	teq	a2,zero,0x7
9d005604:	50600009 	beqzl	v1,9d00562c <__umoddi3+0xec>
9d005608:	01244823 	subu	t1,t1,a0
9d00560c:	01284821 	addu	t1,t1,t0
9d005610:	0128182b 	sltu	v1,t1,t0
9d005614:	54600005 	bnezl	v1,9d00562c <__umoddi3+0xec>
9d005618:	01244823 	subu	t1,t1,a0
9d00561c:	0124182b 	sltu	v1,t1,a0
9d005620:	01284021 	addu	t0,t1,t0
9d005624:	0103480b 	movn	t1,t0,v1
9d005628:	01244823 	subu	t1,t1,a0
9d00562c:	00491006 	srlv	v0,t1,v0
9d005630:	03e00008 	jr	ra
9d005634:	00001821 	move	v1,zero
9d005638:	00a7102b 	sltu	v0,a1,a3
9d00563c:	14400047 	bnez	v0,9d00575c <__umoddi3+0x21c>
9d005640:	70ea5020 	clz	t2,a3
9d005644:	15400048 	bnez	t2,9d005768 <__umoddi3+0x228>
9d005648:	240b0020 	li	t3,32
9d00564c:	00e5102b 	sltu	v0,a3,a1
9d005650:	14400005 	bnez	v0,9d005668 <__umoddi3+0x128>
9d005654:	00861023 	subu	v0,a0,a2
9d005658:	0086402b 	sltu	t0,a0,a2
9d00565c:	15000089 	bnez	t0,9d005884 <__umoddi3+0x344>
9d005660:	00801021 	move	v0,a0
9d005664:	00861023 	subu	v0,a0,a2
9d005668:	00a72823 	subu	a1,a1,a3
9d00566c:	0082202b 	sltu	a0,a0,v0
9d005670:	03e00008 	jr	ra
9d005674:	00a41823 	subu	v1,a1,a0
9d005678:	14c00006 	bnez	a2,9d005694 <__umoddi3+0x154>
9d00567c:	71021020 	clz	v0,t0
9d005680:	24020001 	li	v0,1
9d005684:	0046001b 	divu	zero,v0,a2
9d005688:	00c001f4 	teq	a2,zero,0x7
9d00568c:	00004012 	mflo	t0
9d005690:	71021020 	clz	v0,t0
9d005694:	5440007d 	bnezl	v0,9d00588c <__umoddi3+0x34c>
9d005698:	00484004 	sllv	t0,t0,v0
9d00569c:	00a82823 	subu	a1,a1,t0
9d0056a0:	00081c02 	srl	v1,t0,0x10
9d0056a4:	3107ffff 	andi	a3,t0,0xffff
9d0056a8:	00092402 	srl	a0,t1,0x10
9d0056ac:	00a3001b 	divu	zero,a1,v1
9d0056b0:	006001f4 	teq	v1,zero,0x7
9d0056b4:	00005010 	mfhi	t2
9d0056b8:	00003012 	mflo	a2
9d0056bc:	70c73002 	mul	a2,a2,a3
9d0056c0:	000a5400 	sll	t2,t2,0x10
9d0056c4:	01442025 	or	a0,t2,a0
9d0056c8:	0086502b 	sltu	t2,a0,a2
9d0056cc:	00a3001b 	divu	zero,a1,v1
9d0056d0:	006001f4 	teq	v1,zero,0x7
9d0056d4:	51400009 	beqzl	t2,9d0056fc <__umoddi3+0x1bc>
9d0056d8:	00862023 	subu	a0,a0,a2
9d0056dc:	00882021 	addu	a0,a0,t0
9d0056e0:	0088282b 	sltu	a1,a0,t0
9d0056e4:	54a00005 	bnezl	a1,9d0056fc <__umoddi3+0x1bc>
9d0056e8:	00862023 	subu	a0,a0,a2
9d0056ec:	0086502b 	sltu	t2,a0,a2
9d0056f0:	00882821 	addu	a1,a0,t0
9d0056f4:	00aa200b 	movn	a0,a1,t2
9d0056f8:	00862023 	subu	a0,a0,a2
9d0056fc:	3126ffff 	andi	a2,t1,0xffff
9d005700:	0083001b 	divu	zero,a0,v1
9d005704:	006001f4 	teq	v1,zero,0x7
9d005708:	00004810 	mfhi	t1
9d00570c:	00002812 	mflo	a1
9d005710:	70a72802 	mul	a1,a1,a3
9d005714:	00094c00 	sll	t1,t1,0x10
9d005718:	01264825 	or	t1,t1,a2
9d00571c:	0125302b 	sltu	a2,t1,a1
9d005720:	0083001b 	divu	zero,a0,v1
9d005724:	006001f4 	teq	v1,zero,0x7
9d005728:	50c00009 	beqzl	a2,9d005750 <__umoddi3+0x210>
9d00572c:	01254823 	subu	t1,t1,a1
9d005730:	01284821 	addu	t1,t1,t0
9d005734:	0128182b 	sltu	v1,t1,t0
9d005738:	54600005 	bnezl	v1,9d005750 <__umoddi3+0x210>
9d00573c:	01254823 	subu	t1,t1,a1
9d005740:	0125182b 	sltu	v1,t1,a1
9d005744:	01284021 	addu	t0,t1,t0
9d005748:	0103480b 	movn	t1,t0,v1
9d00574c:	01254823 	subu	t1,t1,a1
9d005750:	00491006 	srlv	v0,t1,v0
9d005754:	03e00008 	jr	ra
9d005758:	00001821 	move	v1,zero
9d00575c:	00801021 	move	v0,a0
9d005760:	03e00008 	jr	ra
9d005764:	00a01821 	move	v1,a1
9d005768:	016a5823 	subu	t3,t3,t2
9d00576c:	01473804 	sllv	a3,a3,t2
9d005770:	01661006 	srlv	v0,a2,t3
9d005774:	00473825 	or	a3,v0,a3
9d005778:	01656806 	srlv	t5,a1,t3
9d00577c:	00074c02 	srl	t1,a3,0x10
9d005780:	01a9001b 	divu	zero,t5,t1
9d005784:	012001f4 	teq	t1,zero,0x7
9d005788:	00006010 	mfhi	t4
9d00578c:	00001812 	mflo	v1
9d005790:	30eeffff 	andi	t6,a3,0xffff
9d005794:	01452804 	sllv	a1,a1,t2
9d005798:	01641006 	srlv	v0,a0,t3
9d00579c:	00451025 	or	v0,v0,a1
9d0057a0:	00022c02 	srl	a1,v0,0x10
9d0057a4:	01463004 	sllv	a2,a2,t2
9d0057a8:	00004012 	mflo	t0
9d0057ac:	706e7802 	mul	t7,v1,t6
9d0057b0:	000c6400 	sll	t4,t4,0x10
9d0057b4:	01856025 	or	t4,t4,a1
9d0057b8:	018f282b 	sltu	a1,t4,t7
9d0057bc:	01a9001b 	divu	zero,t5,t1
9d0057c0:	012001f4 	teq	t1,zero,0x7
9d0057c4:	10a0000a 	beqz	a1,9d0057f0 <__umoddi3+0x2b0>
9d0057c8:	01442004 	sllv	a0,a0,t2
9d0057cc:	01876021 	addu	t4,t4,a3
9d0057d0:	0187282b 	sltu	a1,t4,a3
9d0057d4:	14a00006 	bnez	a1,9d0057f0 <__umoddi3+0x2b0>
9d0057d8:	2468ffff 	addiu	t0,v1,-1
9d0057dc:	018f282b 	sltu	a1,t4,t7
9d0057e0:	50a00004 	beqzl	a1,9d0057f4 <__umoddi3+0x2b4>
9d0057e4:	018f6023 	subu	t4,t4,t7
9d0057e8:	2468fffe 	addiu	t0,v1,-2
9d0057ec:	01876021 	addu	t4,t4,a3
9d0057f0:	018f6023 	subu	t4,t4,t7
9d0057f4:	3042ffff 	andi	v0,v0,0xffff
9d0057f8:	0189001b 	divu	zero,t4,t1
9d0057fc:	012001f4 	teq	t1,zero,0x7
9d005800:	00002810 	mfhi	a1
9d005804:	00001812 	mflo	v1
9d005808:	00006812 	mflo	t5
9d00580c:	706e7002 	mul	t6,v1,t6
9d005810:	00052c00 	sll	a1,a1,0x10
9d005814:	00a21025 	or	v0,a1,v0
9d005818:	004e282b 	sltu	a1,v0,t6
9d00581c:	0189001b 	divu	zero,t4,t1
9d005820:	012001f4 	teq	t1,zero,0x7
9d005824:	50a00006 	beqzl	a1,9d005840 <__umoddi3+0x300>
9d005828:	00084400 	sll	t0,t0,0x10
9d00582c:	00471021 	addu	v0,v0,a3
9d005830:	0047282b 	sltu	a1,v0,a3
9d005834:	10a0004c 	beqz	a1,9d005968 <__umoddi3+0x428>
9d005838:	246dffff 	addiu	t5,v1,-1
9d00583c:	00084400 	sll	t0,t0,0x10
9d005840:	01a84025 	or	t0,t5,t0
9d005844:	004e1023 	subu	v0,v0,t6
9d005848:	01060019 	multu	t0,a2
9d00584c:	00004810 	mfhi	t1
9d005850:	0049182b 	sltu	v1,v0,t1
9d005854:	1460003e 	bnez	v1,9d005950 <__umoddi3+0x410>
9d005858:	00004012 	mflo	t0
9d00585c:	1049004b 	beq	v0,t1,9d00598c <__umoddi3+0x44c>
9d005860:	00491823 	subu	v1,v0,t1
9d005864:	00003012 	mflo	a2
9d005868:	00863023 	subu	a2,a0,a2
9d00586c:	0086202b 	sltu	a0,a0,a2
9d005870:	00641823 	subu	v1,v1,a0
9d005874:	01631004 	sllv	v0,v1,t3
9d005878:	01463006 	srlv	a2,a2,t2
9d00587c:	00461025 	or	v0,v0,a2
9d005880:	01431806 	srlv	v1,v1,t2
9d005884:	03e00008 	jr	ra
9d005888:	00000000 	nop
9d00588c:	24090020 	li	t1,32
9d005890:	01224823 	subu	t1,t1,v0
9d005894:	01255006 	srlv	t2,a1,t1
9d005898:	00081c02 	srl	v1,t0,0x10
9d00589c:	0143001b 	divu	zero,t2,v1
9d0058a0:	006001f4 	teq	v1,zero,0x7
9d0058a4:	00003010 	mfhi	a2
9d0058a8:	00005812 	mflo	t3
9d0058ac:	3107ffff 	andi	a3,t0,0xffff
9d0058b0:	00452804 	sllv	a1,a1,v0
9d0058b4:	01244806 	srlv	t1,a0,t1
9d0058b8:	01252825 	or	a1,t1,a1
9d0058bc:	00056402 	srl	t4,a1,0x10
9d0058c0:	00444804 	sllv	t1,a0,v0
9d0058c4:	71675802 	mul	t3,t3,a3
9d0058c8:	00063400 	sll	a2,a2,0x10
9d0058cc:	01863025 	or	a2,t4,a2
9d0058d0:	00cb202b 	sltu	a0,a2,t3
9d0058d4:	0143001b 	divu	zero,t2,v1
9d0058d8:	006001f4 	teq	v1,zero,0x7
9d0058dc:	50800006 	beqzl	a0,9d0058f8 <__umoddi3+0x3b8>
9d0058e0:	00cb3023 	subu	a2,a2,t3
9d0058e4:	00c83021 	addu	a2,a2,t0
9d0058e8:	00c8202b 	sltu	a0,a2,t0
9d0058ec:	10800024 	beqz	a0,9d005980 <__umoddi3+0x440>
9d0058f0:	00cb502b 	sltu	t2,a2,t3
9d0058f4:	00cb3023 	subu	a2,a2,t3
9d0058f8:	30aaffff 	andi	t2,a1,0xffff
9d0058fc:	00c3001b 	divu	zero,a2,v1
9d005900:	006001f4 	teq	v1,zero,0x7
9d005904:	00002010 	mfhi	a0
9d005908:	00002812 	mflo	a1
9d00590c:	70a72802 	mul	a1,a1,a3
9d005910:	00042400 	sll	a0,a0,0x10
9d005914:	008a2025 	or	a0,a0,t2
9d005918:	0085502b 	sltu	t2,a0,a1
9d00591c:	00c3001b 	divu	zero,a2,v1
9d005920:	006001f4 	teq	v1,zero,0x7
9d005924:	5140ff60 	beqzl	t2,9d0056a8 <__umoddi3+0x168>
9d005928:	00852823 	subu	a1,a0,a1
9d00592c:	00882021 	addu	a0,a0,t0
9d005930:	0088302b 	sltu	a2,a0,t0
9d005934:	54c0ff5c 	bnezl	a2,9d0056a8 <__umoddi3+0x168>
9d005938:	00852823 	subu	a1,a0,a1
9d00593c:	0085502b 	sltu	t2,a0,a1
9d005940:	00883021 	addu	a2,a0,t0
9d005944:	00ca200b 	movn	a0,a2,t2
9d005948:	0b4015aa 	j	9d0056a8 <__umoddi3+0x168>
9d00594c:	00852823 	subu	a1,a0,a1
9d005950:	01063023 	subu	a2,t0,a2
9d005954:	01271823 	subu	v1,t1,a3
9d005958:	0106402b 	sltu	t0,t0,a2
9d00595c:	00681823 	subu	v1,v1,t0
9d005960:	0b40161a 	j	9d005868 <__umoddi3+0x328>
9d005964:	00431823 	subu	v1,v0,v1
9d005968:	004e282b 	sltu	a1,v0,t6
9d00596c:	50a0ffb4 	beqzl	a1,9d005840 <__umoddi3+0x300>
9d005970:	00084400 	sll	t0,t0,0x10
9d005974:	246dfffe 	addiu	t5,v1,-2
9d005978:	0b40160f 	j	9d00583c <__umoddi3+0x2fc>
9d00597c:	00471021 	addu	v0,v0,a3
9d005980:	00c82021 	addu	a0,a2,t0
9d005984:	0b40163d 	j	9d0058f4 <__umoddi3+0x3b4>
9d005988:	008a300b 	movn	a2,a0,t2
9d00598c:	0088182b 	sltu	v1,a0,t0
9d005990:	5460fff0 	bnezl	v1,9d005954 <__umoddi3+0x414>
9d005994:	01063023 	subu	a2,t0,a2
9d005998:	00003012 	mflo	a2
9d00599c:	0b40161a 	j	9d005868 <__umoddi3+0x328>
9d0059a0:	00001821 	move	v1,zero

// wait for the peripheral master port (PMP) to be ready
// should be called before every read and write operation
static void waitPMP(void)
{
  while(PMMODEbits.BUSY) { ; }
9d0059a4:	3c03bf80 	lui	v1,0xbf80
9d0059a8:	8c627010 	lw	v0,28688(v1)
9d0059ac:	30428000 	andi	v0,v0,0x8000
9d0059b0:	1440fffd 	bnez	v0,9d0059a8 <__umoddi3+0x468>
9d0059b4:	00000000 	nop
}
9d0059b8:	03e00008 	jr	ra
9d0059bc:	00000000 	nop

9d0059c0 <LCD_Setup>:
// pins RE0 - RE7 (PMD0 - PMD7) connect to LCD pins D0 - D7
// pin RD4 (PMENB) connects to LCD pin E
// pin RD5 (PMRD/PMWR) Connects to LCD pin R/W
// pin RB13 (PMA10) Connects to RS.
// interrupts will be disabled while this function executes
void LCD_Setup() {
9d0059c0:	27bdffe8 	addiu	sp,sp,-24
9d0059c4:	afbf0014 	sw	ra,20(sp)
9d0059c8:	afb00010 	sw	s0,16(sp)
  int en = __builtin_disable_interrupts();  // disable interrupts, remember initial state
9d0059cc:	41706000 	di	s0
9d0059d0:	000000c0 	ehb
  
  IEC1bits.PMPIE = 0;    // disable PMP interrupts
9d0059d4:	3c02bf88 	lui	v0,0xbf88
9d0059d8:	8c431070 	lw	v1,4208(v0)
9d0059dc:	7c031084 	ins	v1,zero,0x2,0x1
9d0059e0:	ac431070 	sw	v1,4208(v0)
  PMCON = 0;             // clear PMCON, like it is on reset
9d0059e4:	3c02bf80 	lui	v0,0xbf80
9d0059e8:	ac407000 	sw	zero,28672(v0)
  PMCONbits.PTWREN = 1;  // PMENB strobe enabled
9d0059ec:	3c02bf80 	lui	v0,0xbf80
9d0059f0:	94437000 	lhu	v1,28672(v0)
9d0059f4:	24040001 	li	a0,1
9d0059f8:	7c834a44 	ins	v1,a0,0x9,0x1
9d0059fc:	a4437000 	sh	v1,28672(v0)
  PMCONbits.PTRDEN = 1;  // PMRD/PMWR enabled
9d005a00:	94437000 	lhu	v1,28672(v0)
9d005a04:	7c834204 	ins	v1,a0,0x8,0x1
9d005a08:	a4437000 	sh	v1,28672(v0)
  PMCONbits.WRSP = 1;    // Read/write strobe is active high
9d005a0c:	94437000 	lhu	v1,28672(v0)
9d005a10:	7c830844 	ins	v1,a0,0x1,0x1
9d005a14:	a4437000 	sh	v1,28672(v0)
  PMCONbits.RDSP = 1;    // Read/write strobe is active high
9d005a18:	94437000 	lhu	v1,28672(v0)
9d005a1c:	7c830004 	ins	v1,a0,0x0,0x1
9d005a20:	a4437000 	sh	v1,28672(v0)

  PMMODE = 0;            // clear PMMODE like it is on reset
9d005a24:	3c03bf80 	lui	v1,0xbf80
9d005a28:	ac607010 	sw	zero,28688(v1)
  PMMODEbits.MODE = 0x3; // set master mode 1, which uses a single strobe
9d005a2c:	3c03bf80 	lui	v1,0xbf80
9d005a30:	94657010 	lhu	a1,28688(v1)
9d005a34:	24060003 	li	a2,3
9d005a38:	7cc54a04 	ins	a1,a2,0x8,0x2
9d005a3c:	a4657010 	sh	a1,28688(v1)
  // The cycle is started when reading from or writing to the PMDIN SFR.
  // Note that the wait states for writes start with minimum of 1 (except WAITE)
  // We add some extra wait states to make sure we meet the time and
  // account for variations in timing amongst different HD44780 compatible parts.
  // The timing we use here is for the KS066U which is faster than the HD44780.
  PMMODEbits.WAITB = 0x3;  // Tas in the LCD datasheet is 60 ns 
9d005a40:	94657010 	lhu	a1,28688(v1)
9d005a44:	7cc53984 	ins	a1,a2,0x6,0x2
9d005a48:	a4657010 	sh	a1,28688(v1)
  PMMODEbits.WAITM = 0xF;  // PWeh in the data sheet is 230 ns (we don't quite meet this)
9d005a4c:	94657010 	lhu	a1,28688(v1)
9d005a50:	2406000f 	li	a2,15
9d005a54:	7cc52884 	ins	a1,a2,0x2,0x4
9d005a58:	a4657010 	sh	a1,28688(v1)
                           // If not working for your LCD you may need to reduce PBCLK
  PMMODEbits.WAITE = 0x1;  // after E is low wait Tah (10ns)
9d005a5c:	94657010 	lhu	a1,28688(v1)
9d005a60:	7c850804 	ins	a1,a0,0x0,0x2
9d005a64:	a4657010 	sh	a1,28688(v1)

  PMAEN |= 1 << PMABIT;   // PMA is an address line
9d005a68:	3c03bf80 	lui	v1,0xbf80
9d005a6c:	8c657050 	lw	a1,28752(v1)
9d005a70:	34a50400 	ori	a1,a1,0x400
9d005a74:	ac657050 	sw	a1,28752(v1)
  
  PMCONbits.ON = 1;        // enable the PMP peripheral
9d005a78:	94437000 	lhu	v1,28672(v0)
9d005a7c:	7c837bc4 	ins	v1,a0,0xf,0x1
9d005a80:	a4437000 	sh	v1,28672(v0)
// This controls some LCD settings
// You may want to clear the screen after calling this
// n : 0 one line, 1 two lines
// f : 0 small font, 1 large font (only if n == 0)
void LCD_Function(int n, int f) {
  LCD_Write(0, 0x30 | (n << 3) | (f << 2));
9d005a84:	00002021 	move	a0,zero
9d005a88:	0f40173b 	jal	9d005cec <LCD_Write>
9d005a8c:	24050038 	li	a1,56
// Changes display settings
// d : 1 display on, 0 display off
// c : 1 cursor on, 0 cursor off
// b : 1 cursor blinks, 0 cursor doesn't blink
void LCD_Display(int d, int c, int b) {
  LCD_Write(0, 0x08 | (d << 2) | (c << 1) | b);
9d005a90:	00002021 	move	a0,zero
9d005a94:	0f40173b 	jal	9d005cec <LCD_Write>
9d005a98:	2405000c 	li	a1,12
  
  PMCONbits.ON = 1;        // enable the PMP peripheral
  // perform the initialization sequence
  LCD_Function(1,0);       // 2 line mode, small font
  LCD_Display(1, 0, 0);    // Display control: display on, cursor off, blinking cursor off
  LCD_Clear();             // clear the LCD 
9d005a9c:	0f4016b3 	jal	9d005acc <LCD_Clear>
9d005aa0:	32100001 	andi	s0,s0,0x1
// Issue the LCD entry mode set command
// This tells the LCD what to do after writing a character
// id : 1 increment cursor, 0 decrement cursor
// s : 1 shift display right, 0 don't shift display
void LCD_Entry(int id, int s) {
  LCD_Write(0, 0x04 | (id << 1) | s);
9d005aa4:	00002021 	move	a0,zero
9d005aa8:	0f40173b 	jal	9d005cec <LCD_Write>
9d005aac:	24050006 	li	a1,6
  LCD_Function(1,0);       // 2 line mode, small font
  LCD_Display(1, 0, 0);    // Display control: display on, cursor off, blinking cursor off
  LCD_Clear();             // clear the LCD 
  LCD_Entry(1, 0);         // Cursor moves left to right. do not shift the display
  
  if(en & 0x1)             // if interrupts were enabled before, re-enable them
9d005ab0:	12000003 	beqz	s0,9d005ac0 <LCD_Setup+0x100>
9d005ab4:	8fbf0014 	lw	ra,20(sp)
  {
    __builtin_enable_interrupts();
9d005ab8:	41626020 	ei	v0
  }
}
9d005abc:	8fbf0014 	lw	ra,20(sp)
9d005ac0:	8fb00010 	lw	s0,16(sp)
9d005ac4:	03e00008 	jr	ra
9d005ac8:	27bd0018 	addiu	sp,sp,24

9d005acc <LCD_Clear>:

// Clears the display and returns to the home position (0,0)
void LCD_Clear(void) {
9d005acc:	27bdffe8 	addiu	sp,sp,-24
9d005ad0:	afbf0014 	sw	ra,20(sp)
  LCD_Write(0,0x01); //clear the whole screen
9d005ad4:	00002021 	move	a0,zero
9d005ad8:	0f40173b 	jal	9d005cec <LCD_Write>
9d005adc:	24050001 	li	a1,1
}
9d005ae0:	8fbf0014 	lw	ra,20(sp)
9d005ae4:	03e00008 	jr	ra
9d005ae8:	27bd0018 	addiu	sp,sp,24

9d005aec <LCD_Home>:

// Return the cursor and display to the home position (0,0)
void LCD_Home(void) {
9d005aec:	27bdffe8 	addiu	sp,sp,-24
9d005af0:	afbf0014 	sw	ra,20(sp)
  LCD_Write(0,0x02);
9d005af4:	00002021 	move	a0,zero
9d005af8:	0f40173b 	jal	9d005cec <LCD_Write>
9d005afc:	24050002 	li	a1,2
}
9d005b00:	8fbf0014 	lw	ra,20(sp)
9d005b04:	03e00008 	jr	ra
9d005b08:	27bd0018 	addiu	sp,sp,24

9d005b0c <LCD_Entry>:

// Issue the LCD entry mode set command
// This tells the LCD what to do after writing a character
// id : 1 increment cursor, 0 decrement cursor
// s : 1 shift display right, 0 don't shift display
void LCD_Entry(int id, int s) {
9d005b0c:	27bdffe8 	addiu	sp,sp,-24
9d005b10:	afbf0014 	sw	ra,20(sp)
  LCD_Write(0, 0x04 | (id << 1) | s);
9d005b14:	34a50004 	ori	a1,a1,0x4
9d005b18:	00042040 	sll	a0,a0,0x1
9d005b1c:	00a42825 	or	a1,a1,a0
9d005b20:	00002021 	move	a0,zero
9d005b24:	0f40173b 	jal	9d005cec <LCD_Write>
9d005b28:	30a500ff 	andi	a1,a1,0xff
}
9d005b2c:	8fbf0014 	lw	ra,20(sp)
9d005b30:	03e00008 	jr	ra
9d005b34:	27bd0018 	addiu	sp,sp,24

9d005b38 <LCD_Display>:
// Issue the LCD Display command
// Changes display settings
// d : 1 display on, 0 display off
// c : 1 cursor on, 0 cursor off
// b : 1 cursor blinks, 0 cursor doesn't blink
void LCD_Display(int d, int c, int b) {
9d005b38:	27bdffe8 	addiu	sp,sp,-24
9d005b3c:	afbf0014 	sw	ra,20(sp)
  LCD_Write(0, 0x08 | (d << 2) | (c << 1) | b);
9d005b40:	34c60008 	ori	a2,a2,0x8
9d005b44:	00052840 	sll	a1,a1,0x1
9d005b48:	00c53025 	or	a2,a2,a1
9d005b4c:	00042080 	sll	a0,a0,0x2
9d005b50:	00c42825 	or	a1,a2,a0
9d005b54:	00002021 	move	a0,zero
9d005b58:	0f40173b 	jal	9d005cec <LCD_Write>
9d005b5c:	30a500ff 	andi	a1,a1,0xff
}
9d005b60:	8fbf0014 	lw	ra,20(sp)
9d005b64:	03e00008 	jr	ra
9d005b68:	27bd0018 	addiu	sp,sp,24

9d005b6c <LCD_Shift>:

// Issue the LCD display shift command
// Move the cursor or the display right or left
// sc : 0 shift cursor, 1 shift display
// rl : 0 to the left, 1 to the right
void LCD_Shift(int sc, int rl) {
9d005b6c:	27bdffe8 	addiu	sp,sp,-24
9d005b70:	afbf0014 	sw	ra,20(sp)
  LCD_Write(0,0x1 | (sc << 3) | (rl << 2));
9d005b74:	00052880 	sll	a1,a1,0x2
9d005b78:	34a50001 	ori	a1,a1,0x1
9d005b7c:	000420c0 	sll	a0,a0,0x3
9d005b80:	00a42825 	or	a1,a1,a0
9d005b84:	00002021 	move	a0,zero
9d005b88:	0f40173b 	jal	9d005cec <LCD_Write>
9d005b8c:	30a500fd 	andi	a1,a1,0xfd
}
9d005b90:	8fbf0014 	lw	ra,20(sp)
9d005b94:	03e00008 	jr	ra
9d005b98:	27bd0018 	addiu	sp,sp,24

9d005b9c <LCD_Function>:
// Issue the LCD Functions set command
// This controls some LCD settings
// You may want to clear the screen after calling this
// n : 0 one line, 1 two lines
// f : 0 small font, 1 large font (only if n == 0)
void LCD_Function(int n, int f) {
9d005b9c:	27bdffe8 	addiu	sp,sp,-24
9d005ba0:	afbf0014 	sw	ra,20(sp)
  LCD_Write(0, 0x30 | (n << 3) | (f << 2));
9d005ba4:	00052880 	sll	a1,a1,0x2
9d005ba8:	34a50030 	ori	a1,a1,0x30
9d005bac:	000420c0 	sll	a0,a0,0x3
9d005bb0:	00a42825 	or	a1,a1,a0
9d005bb4:	00002021 	move	a0,zero
9d005bb8:	0f40173b 	jal	9d005cec <LCD_Write>
9d005bbc:	30a500fc 	andi	a1,a1,0xfc
}
9d005bc0:	8fbf0014 	lw	ra,20(sp)
9d005bc4:	03e00008 	jr	ra
9d005bc8:	27bd0018 	addiu	sp,sp,24

9d005bcc <LCD_Move>:

// Move the cursor to the desired line and column
// Does this by issuing a DDRAM Move instruction
// line : line 0 or line 1
// col  : the desired column
void LCD_Move(int line, int col) {
9d005bcc:	27bdffe8 	addiu	sp,sp,-24
9d005bd0:	afbf0014 	sw	ra,20(sp)
  LCD_Write(0, 0x80 | (line << 6) | col);
9d005bd4:	2402ff80 	li	v0,-128
9d005bd8:	00a22825 	or	a1,a1,v0
9d005bdc:	00042180 	sll	a0,a0,0x6
9d005be0:	00a42825 	or	a1,a1,a0
9d005be4:	00002021 	move	a0,zero
9d005be8:	0f40173b 	jal	9d005cec <LCD_Write>
9d005bec:	30a500ff 	andi	a1,a1,0xff
}
9d005bf0:	8fbf0014 	lw	ra,20(sp)
9d005bf4:	03e00008 	jr	ra
9d005bf8:	27bd0018 	addiu	sp,sp,24

9d005bfc <LCD_CMove>:

// Sets the CGRAM address, used for creating custom
// characters
// addr address in the CGRAM to make current
void LCD_CMove(unsigned char addr) {
9d005bfc:	27bdffe8 	addiu	sp,sp,-24
9d005c00:	afbf0014 	sw	ra,20(sp)
9d005c04:	308500ff 	andi	a1,a0,0xff
  LCD_Write(0, 0x40 | addr);
9d005c08:	00002021 	move	a0,zero
9d005c0c:	0f40173b 	jal	9d005cec <LCD_Write>
9d005c10:	34a50040 	ori	a1,a1,0x40
}
9d005c14:	8fbf0014 	lw	ra,20(sp)
9d005c18:	03e00008 	jr	ra
9d005c1c:	27bd0018 	addiu	sp,sp,24

9d005c20 <LCD_WriteChar>:

// Writes the character to the LCD at the current position
void LCD_WriteChar(char c) {         
9d005c20:	27bdffe8 	addiu	sp,sp,-24
9d005c24:	afbf0014 	sw	ra,20(sp)
  LCD_Write(1, c); 
9d005c28:	308500ff 	andi	a1,a0,0xff
9d005c2c:	0f40173b 	jal	9d005cec <LCD_Write>
9d005c30:	24040001 	li	a0,1
}
9d005c34:	8fbf0014 	lw	ra,20(sp)
9d005c38:	03e00008 	jr	ra
9d005c3c:	27bd0018 	addiu	sp,sp,24

9d005c40 <LCD_WriteString>:

// Write a string to the LCD starting at the current cursor
void LCD_WriteString(const char *str) {
9d005c40:	27bdffe8 	addiu	sp,sp,-24
9d005c44:	afbf0014 	sw	ra,20(sp)
9d005c48:	afb00010 	sw	s0,16(sp)
9d005c4c:	00808021 	move	s0,a0
  while(*str) {
9d005c50:	80840000 	lb	a0,0(a0)
9d005c54:	10800006 	beqz	a0,9d005c70 <LCD_WriteString+0x30>
9d005c58:	8fbf0014 	lw	ra,20(sp)
    LCD_WriteChar(*str); // increment string pointer after char sent
9d005c5c:	0f401708 	jal	9d005c20 <LCD_WriteChar>
9d005c60:	26100001 	addiu	s0,s0,1
  LCD_Write(1, c); 
}

// Write a string to the LCD starting at the current cursor
void LCD_WriteString(const char *str) {
  while(*str) {
9d005c64:	82040000 	lb	a0,0(s0)
9d005c68:	1480fffc 	bnez	a0,9d005c5c <LCD_WriteString+0x1c>
9d005c6c:	8fbf0014 	lw	ra,20(sp)
    LCD_WriteChar(*str); // increment string pointer after char sent
    ++str;
  }
}
9d005c70:	8fb00010 	lw	s0,16(sp)
9d005c74:	03e00008 	jr	ra
9d005c78:	27bd0018 	addiu	sp,sp,24

9d005c7c <LCD_CustomChar>:
// Make val a custom character.  This only implements 
// The small font version
// val : between 0 and 7
// data : 7 character array.  The first 5 bits of each character
//        determine whether that pixel is on or off
void LCD_CustomChar(unsigned char val, const char * data) {
9d005c7c:	27bdffd8 	addiu	sp,sp,-40
9d005c80:	afbf0024 	sw	ra,36(sp)
9d005c84:	afb30020 	sw	s3,32(sp)
9d005c88:	afb2001c 	sw	s2,28(sp)
9d005c8c:	afb10018 	sw	s1,24(sp)
9d005c90:	afb00014 	sw	s0,20(sp)
9d005c94:	00a09821 	move	s3,a1
  int i = 0;
  for(i = 0; i < 7; ++i) {
    LCD_CMove(((val & 7) << 2) | i);
9d005c98:	30840007 	andi	a0,a0,0x7
9d005c9c:	00049080 	sll	s2,a0,0x2
// val : between 0 and 7
// data : 7 character array.  The first 5 bits of each character
//        determine whether that pixel is on or off
void LCD_CustomChar(unsigned char val, const char * data) {
  int i = 0;
  for(i = 0; i < 7; ++i) {
9d005ca0:	00008021 	move	s0,zero
9d005ca4:	24110007 	li	s1,7
    LCD_CMove(((val & 7) << 2) | i);
9d005ca8:	02502025 	or	a0,s2,s0
9d005cac:	0f4016ff 	jal	9d005bfc <LCD_CMove>
9d005cb0:	308400ff 	andi	a0,a0,0xff
9d005cb4:	02701021 	addu	v0,s3,s0
    LCD_Write(1, data[i]);
9d005cb8:	24040001 	li	a0,1
9d005cbc:	0f40173b 	jal	9d005cec <LCD_Write>
9d005cc0:	90450000 	lbu	a1,0(v0)
// val : between 0 and 7
// data : 7 character array.  The first 5 bits of each character
//        determine whether that pixel is on or off
void LCD_CustomChar(unsigned char val, const char * data) {
  int i = 0;
  for(i = 0; i < 7; ++i) {
9d005cc4:	26100001 	addiu	s0,s0,1
9d005cc8:	1611fff8 	bne	s0,s1,9d005cac <LCD_CustomChar+0x30>
9d005ccc:	02502025 	or	a0,s2,s0
    LCD_CMove(((val & 7) << 2) | i);
    LCD_Write(1, data[i]);
  }
}
9d005cd0:	8fbf0024 	lw	ra,36(sp)
9d005cd4:	8fb30020 	lw	s3,32(sp)
9d005cd8:	8fb2001c 	lw	s2,28(sp)
9d005cdc:	8fb10018 	lw	s1,24(sp)
9d005ce0:	8fb00014 	lw	s0,20(sp)
9d005ce4:	03e00008 	jr	ra
9d005ce8:	27bd0028 	addiu	sp,sp,40

9d005cec <LCD_Write>:

// Write data to the LCD and wait for it to finish by checking the busy flag. 
// rs : the value of the RS signal, 0 for an instruction 1 for data
// data : the byte to send
void LCD_Write(int rs, unsigned char data) {
9d005cec:	27bdffd8 	addiu	sp,sp,-40
9d005cf0:	afbf0024 	sw	ra,36(sp)
9d005cf4:	afb10020 	sw	s1,32(sp)
9d005cf8:	afb0001c 	sw	s0,28(sp)
9d005cfc:	00808021 	move	s0,a0
9d005d00:	30b100ff 	andi	s1,a1,0xff
}

// wait for the LCD to finish its command.
// We check this by reading from the LCD
static void waitLCD() {
  volatile unsigned char val = 0x80;
9d005d04:	2402ff80 	li	v0,-128
9d005d08:	a3a20010 	sb	v0,16(sp)
  
  // Read from the LCD until the Busy flag (BF, 7th bit) is 0
  while (val & 0x80) {
9d005d0c:	93a20010 	lbu	v0,16(sp)
9d005d10:	7c021420 	seb	v0,v0
9d005d14:	04410008 	bgez	v0,9d005d38 <LCD_Write+0x4c>
9d005d18:	24020032 	li	v0,50
    val = LCD_Read(0);
9d005d1c:	0f401763 	jal	9d005d8c <LCD_Read>
9d005d20:	00002021 	move	a0,zero
9d005d24:	a3a20010 	sb	v0,16(sp)
// We check this by reading from the LCD
static void waitLCD() {
  volatile unsigned char val = 0x80;
  
  // Read from the LCD until the Busy flag (BF, 7th bit) is 0
  while (val & 0x80) {
9d005d28:	93a20010 	lbu	v0,16(sp)
9d005d2c:	7c021420 	seb	v0,v0
9d005d30:	0440fffa 	bltz	v0,9d005d1c <LCD_Write+0x30>
9d005d34:	24020032 	li	v0,50
    val = LCD_Read(0);
  }
  int i = 0;
  for(i = 0; i < 50; ++i) { // slight delay
    _nop();
9d005d38:	00000040 	ssnop
9d005d3c:	2442ffff 	addiu	v0,v0,-1
  // Read from the LCD until the Busy flag (BF, 7th bit) is 0
  while (val & 0x80) {
    val = LCD_Read(0);
  }
  int i = 0;
  for(i = 0; i < 50; ++i) { // slight delay
9d005d40:	1440fffd 	bnez	v0,9d005d38 <LCD_Write+0x4c>
9d005d44:	00000000 	nop
// Write data to the LCD and wait for it to finish by checking the busy flag. 
// rs : the value of the RS signal, 0 for an instruction 1 for data
// data : the byte to send
void LCD_Write(int rs, unsigned char data) {
  waitLCD();           // wait for the LCD to be ready
  if(rs) { // 1 for data
9d005d48:	12000004 	beqz	s0,9d005d5c <LCD_Write+0x70>
9d005d4c:	24030400 	li	v1,1024
    PMADDRSET = 1 << PMABIT;
9d005d50:	3c02bf80 	lui	v0,0xbf80
9d005d54:	0b401759 	j	9d005d64 <LCD_Write+0x78>
9d005d58:	ac437028 	sw	v1,28712(v0)
  } else { // 0 for command
    PMADDRCLR = 1 << PMABIT; 
9d005d5c:	3c02bf80 	lui	v0,0xbf80
9d005d60:	ac437024 	sw	v1,28708(v0)
  }
  waitPMP();           // Wait for the PMP to be ready
9d005d64:	0f401669 	jal	9d0059a4 <__umoddi3+0x464>
9d005d68:	00000000 	nop
  PMDIN = data;        // send the data
9d005d6c:	3c02bf80 	lui	v0,0xbf80
9d005d70:	ac517040 	sw	s1,28736(v0)
}
9d005d74:	0b40175f 	j	9d005d7c <LCD_Write+0x90>
9d005d78:	8fbf0024 	lw	ra,36(sp)
9d005d7c:	8fb10020 	lw	s1,32(sp)
9d005d80:	8fb0001c 	lw	s0,28(sp)
9d005d84:	03e00008 	jr	ra
9d005d88:	27bd0028 	addiu	sp,sp,40

9d005d8c <LCD_Read>:

// read data from the LCD.  
// rs : the value of the RS signal 0 for instructions status, 1 for data
unsigned char LCD_Read(int rs) {
9d005d8c:	27bdffe0 	addiu	sp,sp,-32
9d005d90:	afbf001c 	sw	ra,28(sp)
9d005d94:	afb00018 	sw	s0,24(sp)
  volatile unsigned char val = 0; // volatile so 1st read doesn't get optimized away
9d005d98:	a3a00010 	sb	zero,16(sp)
  if(rs) { // 1 to read data
9d005d9c:	10800005 	beqz	a0,9d005db4 <LCD_Read+0x28>
9d005da0:	24030400 	li	v1,1024
    PMADDRSET = 1 << PMABIT;
9d005da4:	3c02bf80 	lui	v0,0xbf80
9d005da8:	ac437028 	sw	v1,28712(v0)
9d005dac:	0b40176f 	j	9d005dbc <LCD_Read+0x30>
9d005db0:	00000000 	nop
  } else { // 0 to read command status
    PMADDRCLR = 1 << PMABIT;
9d005db4:	3c02bf80 	lui	v0,0xbf80
9d005db8:	ac437024 	sw	v1,28708(v0)
  }
  // from the PIC32 reference manual, you must read twice to actually get the data
  waitPMP();                  // wait for the PMP to be ready
9d005dbc:	0f401669 	jal	9d0059a4 <__umoddi3+0x464>
9d005dc0:	3c10bf80 	lui	s0,0xbf80
  val = PMDIN;
9d005dc4:	8e027040 	lw	v0,28736(s0)
9d005dc8:	304200ff 	andi	v0,v0,0xff
9d005dcc:	a3a20010 	sb	v0,16(sp)
  waitPMP();
9d005dd0:	0f401669 	jal	9d0059a4 <__umoddi3+0x464>
9d005dd4:	00000000 	nop
  val = PMDIN;
9d005dd8:	8e027040 	lw	v0,28736(s0)
9d005ddc:	304200ff 	andi	v0,v0,0xff
9d005de0:	a3a20010 	sb	v0,16(sp)
  return val;
9d005de4:	93a20010 	lbu	v0,16(sp)
}
9d005de8:	304200ff 	andi	v0,v0,0xff
9d005dec:	8fbf001c 	lw	ra,28(sp)
9d005df0:	8fb00018 	lw	s0,24(sp)
9d005df4:	03e00008 	jr	ra
9d005df8:	27bd0020 	addiu	sp,sp,32

9d005dfc <__udivdi3>:
9d005dfc:	00c04021 	move	t0,a2
9d005e00:	00801021 	move	v0,a0
9d005e04:	14e0003f 	bnez	a3,9d005f04 <__udivdi3+0x108>
9d005e08:	00a04821 	move	t1,a1
9d005e0c:	00a6182b 	sltu	v1,a1,a2
9d005e10:	10600047 	beqz	v1,9d005f30 <__udivdi3+0x134>
9d005e14:	70c31820 	clz	v1,a2
9d005e18:	50600008 	beqzl	v1,9d005e3c <__udivdi3+0x40>
9d005e1c:	00081c02 	srl	v1,t0,0x10
9d005e20:	00034823 	negu	t1,v1
9d005e24:	00652804 	sllv	a1,a1,v1
9d005e28:	01244806 	srlv	t1,a0,t1
9d005e2c:	00664004 	sllv	t0,a2,v1
9d005e30:	01254825 	or	t1,t1,a1
9d005e34:	00641004 	sllv	v0,a0,v1
9d005e38:	00081c02 	srl	v1,t0,0x10
9d005e3c:	0123001b 	divu	zero,t1,v1
9d005e40:	006001f4 	teq	v1,zero,0x7
9d005e44:	00006010 	mfhi	t4
9d005e48:	00005812 	mflo	t3
9d005e4c:	310affff 	andi	t2,t0,0xffff
9d005e50:	00022402 	srl	a0,v0,0x10
9d005e54:	00003012 	mflo	a2
9d005e58:	716a3802 	mul	a3,t3,t2
9d005e5c:	000c6400 	sll	t4,t4,0x10
9d005e60:	01842025 	or	a0,t4,a0
9d005e64:	0087602b 	sltu	t4,a0,a3
9d005e68:	0123001b 	divu	zero,t1,v1
9d005e6c:	006001f4 	teq	v1,zero,0x7
9d005e70:	1180000b 	beqz	t4,9d005ea0 <__udivdi3+0xa4>
9d005e74:	00872823 	subu	a1,a0,a3
9d005e78:	00882021 	addu	a0,a0,t0
9d005e7c:	0088282b 	sltu	a1,a0,t0
9d005e80:	14a00006 	bnez	a1,9d005e9c <__udivdi3+0xa0>
9d005e84:	2566ffff 	addiu	a2,t3,-1
9d005e88:	0087282b 	sltu	a1,a0,a3
9d005e8c:	10a00004 	beqz	a1,9d005ea0 <__udivdi3+0xa4>
9d005e90:	00872823 	subu	a1,a0,a3
9d005e94:	2566fffe 	addiu	a2,t3,-2
9d005e98:	00882021 	addu	a0,a0,t0
9d005e9c:	00872823 	subu	a1,a0,a3
9d005ea0:	3042ffff 	andi	v0,v0,0xffff
9d005ea4:	00a3001b 	divu	zero,a1,v1
9d005ea8:	006001f4 	teq	v1,zero,0x7
9d005eac:	00004810 	mfhi	t1
9d005eb0:	00003812 	mflo	a3
9d005eb4:	00002012 	mflo	a0
9d005eb8:	70ea5002 	mul	t2,a3,t2
9d005ebc:	00094c00 	sll	t1,t1,0x10
9d005ec0:	01221025 	or	v0,t1,v0
9d005ec4:	004a482b 	sltu	t1,v0,t2
9d005ec8:	00a3001b 	divu	zero,a1,v1
9d005ecc:	006001f4 	teq	v1,zero,0x7
9d005ed0:	51200009 	beqzl	t1,9d005ef8 <__udivdi3+0xfc>
9d005ed4:	00061400 	sll	v0,a2,0x10
9d005ed8:	00481021 	addu	v0,v0,t0
9d005edc:	0048402b 	sltu	t0,v0,t0
9d005ee0:	15000004 	bnez	t0,9d005ef4 <__udivdi3+0xf8>
9d005ee4:	24e4ffff 	addiu	a0,a3,-1
9d005ee8:	004a502b 	sltu	t2,v0,t2
9d005eec:	24e7fffe 	addiu	a3,a3,-2
9d005ef0:	00ea200b 	movn	a0,a3,t2
9d005ef4:	00061400 	sll	v0,a2,0x10
9d005ef8:	00821025 	or	v0,a0,v0
9d005efc:	03e00008 	jr	ra
9d005f00:	00001821 	move	v1,zero
9d005f04:	00a7102b 	sltu	v0,a1,a3
9d005f08:	14400044 	bnez	v0,9d00601c <__udivdi3+0x220>
9d005f0c:	70e84020 	clz	t0,a3
9d005f10:	55000045 	bnezl	t0,9d006028 <__udivdi3+0x22c>
9d005f14:	24020020 	li	v0,32
9d005f18:	00e5282b 	sltu	a1,a3,a1
9d005f1c:	14a000c8 	bnez	a1,9d006240 <__udivdi3+0x444>
9d005f20:	0086302b 	sltu	a2,a0,a2
9d005f24:	38c20001 	xori	v0,a2,0x1
9d005f28:	03e00008 	jr	ra
9d005f2c:	00001821 	move	v1,zero
9d005f30:	14c00006 	bnez	a2,9d005f4c <__udivdi3+0x150>
9d005f34:	71031820 	clz	v1,t0
9d005f38:	24030001 	li	v1,1
9d005f3c:	0066001b 	divu	zero,v1,a2
9d005f40:	00c001f4 	teq	a2,zero,0x7
9d005f44:	00004012 	mflo	t0
9d005f48:	71031820 	clz	v1,t0
9d005f4c:	5460007b 	bnezl	v1,9d00613c <__udivdi3+0x340>
9d005f50:	00684004 	sllv	t0,t0,v1
9d005f54:	00a82023 	subu	a0,a1,t0
9d005f58:	00083c02 	srl	a3,t0,0x10
9d005f5c:	310bffff 	andi	t3,t0,0xffff
9d005f60:	24030001 	li	v1,1
9d005f64:	00023402 	srl	a2,v0,0x10
9d005f68:	0087001b 	divu	zero,a0,a3
9d005f6c:	00e001f4 	teq	a3,zero,0x7
9d005f70:	00006810 	mfhi	t5
9d005f74:	00006012 	mflo	t4
9d005f78:	00004812 	mflo	t1
9d005f7c:	718b5002 	mul	t2,t4,t3
9d005f80:	000d6c00 	sll	t5,t5,0x10
9d005f84:	01a63025 	or	a2,t5,a2
9d005f88:	00ca682b 	sltu	t5,a2,t2
9d005f8c:	0087001b 	divu	zero,a0,a3
9d005f90:	00e001f4 	teq	a3,zero,0x7
9d005f94:	11a00009 	beqz	t5,9d005fbc <__udivdi3+0x1c0>
9d005f98:	00ca2823 	subu	a1,a2,t2
9d005f9c:	00c83021 	addu	a2,a2,t0
9d005fa0:	00c8202b 	sltu	a0,a2,t0
9d005fa4:	14800004 	bnez	a0,9d005fb8 <__udivdi3+0x1bc>
9d005fa8:	2589ffff 	addiu	t1,t4,-1
9d005fac:	00ca202b 	sltu	a0,a2,t2
9d005fb0:	548000a6 	bnezl	a0,9d00624c <__udivdi3+0x450>
9d005fb4:	2589fffe 	addiu	t1,t4,-2
9d005fb8:	00ca2823 	subu	a1,a2,t2
9d005fbc:	3042ffff 	andi	v0,v0,0xffff
9d005fc0:	00a7001b 	divu	zero,a1,a3
9d005fc4:	00e001f4 	teq	a3,zero,0x7
9d005fc8:	00005010 	mfhi	t2
9d005fcc:	00003012 	mflo	a2
9d005fd0:	00002012 	mflo	a0
9d005fd4:	70cb5802 	mul	t3,a2,t3
9d005fd8:	000a5400 	sll	t2,t2,0x10
9d005fdc:	01421025 	or	v0,t2,v0
9d005fe0:	004b502b 	sltu	t2,v0,t3
9d005fe4:	00a7001b 	divu	zero,a1,a3
9d005fe8:	00e001f4 	teq	a3,zero,0x7
9d005fec:	51400009 	beqzl	t2,9d006014 <__udivdi3+0x218>
9d005ff0:	00091400 	sll	v0,t1,0x10
9d005ff4:	00481021 	addu	v0,v0,t0
9d005ff8:	0048402b 	sltu	t0,v0,t0
9d005ffc:	15000004 	bnez	t0,9d006010 <__udivdi3+0x214>
9d006000:	24c4ffff 	addiu	a0,a2,-1
9d006004:	004b582b 	sltu	t3,v0,t3
9d006008:	24c6fffe 	addiu	a2,a2,-2
9d00600c:	00cb200b 	movn	a0,a2,t3
9d006010:	00091400 	sll	v0,t1,0x10
9d006014:	03e00008 	jr	ra
9d006018:	00821025 	or	v0,a0,v0
9d00601c:	00001821 	move	v1,zero
9d006020:	03e00008 	jr	ra
9d006024:	00001021 	move	v0,zero
9d006028:	00481023 	subu	v0,v0,t0
9d00602c:	01073804 	sllv	a3,a3,t0
9d006030:	00461806 	srlv	v1,a2,v0
9d006034:	00673825 	or	a3,v1,a3
9d006038:	00455006 	srlv	t2,a1,v0
9d00603c:	00071c02 	srl	v1,a3,0x10
9d006040:	0143001b 	divu	zero,t2,v1
9d006044:	006001f4 	teq	v1,zero,0x7
9d006048:	00004810 	mfhi	t1
9d00604c:	00006812 	mflo	t5
9d006050:	30ebffff 	andi	t3,a3,0xffff
9d006054:	01052804 	sllv	a1,a1,t0
9d006058:	00441006 	srlv	v0,a0,v0
9d00605c:	00452825 	or	a1,v0,a1
9d006060:	00057402 	srl	t6,a1,0x10
9d006064:	00001012 	mflo	v0
9d006068:	71ab6002 	mul	t4,t5,t3
9d00606c:	00094c00 	sll	t1,t1,0x10
9d006070:	012e4825 	or	t1,t1,t6
9d006074:	012c702b 	sltu	t6,t1,t4
9d006078:	0143001b 	divu	zero,t2,v1
9d00607c:	006001f4 	teq	v1,zero,0x7
9d006080:	11c0000a 	beqz	t6,9d0060ac <__udivdi3+0x2b0>
9d006084:	01063004 	sllv	a2,a2,t0
9d006088:	01274821 	addu	t1,t1,a3
9d00608c:	0127502b 	sltu	t2,t1,a3
9d006090:	15400006 	bnez	t2,9d0060ac <__udivdi3+0x2b0>
9d006094:	25a2ffff 	addiu	v0,t5,-1
9d006098:	012c502b 	sltu	t2,t1,t4
9d00609c:	51400004 	beqzl	t2,9d0060b0 <__udivdi3+0x2b4>
9d0060a0:	012c4823 	subu	t1,t1,t4
9d0060a4:	25a2fffe 	addiu	v0,t5,-2
9d0060a8:	01274821 	addu	t1,t1,a3
9d0060ac:	012c4823 	subu	t1,t1,t4
9d0060b0:	30a5ffff 	andi	a1,a1,0xffff
9d0060b4:	0123001b 	divu	zero,t1,v1
9d0060b8:	006001f4 	teq	v1,zero,0x7
9d0060bc:	00006810 	mfhi	t5
9d0060c0:	00006012 	mflo	t4
9d0060c4:	00005012 	mflo	t2
9d0060c8:	718b5802 	mul	t3,t4,t3
9d0060cc:	000d6c00 	sll	t5,t5,0x10
9d0060d0:	01a52825 	or	a1,t5,a1
9d0060d4:	00ab682b 	sltu	t5,a1,t3
9d0060d8:	0123001b 	divu	zero,t1,v1
9d0060dc:	006001f4 	teq	v1,zero,0x7
9d0060e0:	51a0000b 	beqzl	t5,9d006110 <__udivdi3+0x314>
9d0060e4:	00021400 	sll	v0,v0,0x10
9d0060e8:	00a72821 	addu	a1,a1,a3
9d0060ec:	00a7182b 	sltu	v1,a1,a3
9d0060f0:	14600006 	bnez	v1,9d00610c <__udivdi3+0x310>
9d0060f4:	258affff 	addiu	t2,t4,-1
9d0060f8:	00ab182b 	sltu	v1,a1,t3
9d0060fc:	50600004 	beqzl	v1,9d006110 <__udivdi3+0x314>
9d006100:	00021400 	sll	v0,v0,0x10
9d006104:	258afffe 	addiu	t2,t4,-2
9d006108:	00a72821 	addu	a1,a1,a3
9d00610c:	00021400 	sll	v0,v0,0x10
9d006110:	01421025 	or	v0,t2,v0
9d006114:	00ab2823 	subu	a1,a1,t3
9d006118:	00460019 	multu	v0,a2
9d00611c:	00003810 	mfhi	a3
9d006120:	00a7182b 	sltu	v1,a1,a3
9d006124:	14600044 	bnez	v1,9d006238 <__udivdi3+0x43c>
9d006128:	00003012 	mflo	a2
9d00612c:	10a7003f 	beq	a1,a3,9d00622c <__udivdi3+0x430>
9d006130:	01042004 	sllv	a0,a0,t0
9d006134:	03e00008 	jr	ra
9d006138:	00001821 	move	v1,zero
9d00613c:	24020020 	li	v0,32
9d006140:	00431023 	subu	v0,v0,v1
9d006144:	00454806 	srlv	t1,a1,v0
9d006148:	00083c02 	srl	a3,t0,0x10
9d00614c:	0127001b 	divu	zero,t1,a3
9d006150:	00e001f4 	teq	a3,zero,0x7
9d006154:	00003010 	mfhi	a2
9d006158:	00006012 	mflo	t4
9d00615c:	310bffff 	andi	t3,t0,0xffff
9d006160:	00652804 	sllv	a1,a1,v1
9d006164:	00441006 	srlv	v0,a0,v0
9d006168:	00452825 	or	a1,v0,a1
9d00616c:	00056c02 	srl	t5,a1,0x10
9d006170:	00641004 	sllv	v0,a0,v1
9d006174:	00001812 	mflo	v1
9d006178:	718b5002 	mul	t2,t4,t3
9d00617c:	00063400 	sll	a2,a2,0x10
9d006180:	01a63025 	or	a2,t5,a2
9d006184:	00ca202b 	sltu	a0,a2,t2
9d006188:	0127001b 	divu	zero,t1,a3
9d00618c:	00e001f4 	teq	a3,zero,0x7
9d006190:	5080000b 	beqzl	a0,9d0061c0 <__udivdi3+0x3c4>
9d006194:	00ca3023 	subu	a2,a2,t2
9d006198:	00c83021 	addu	a2,a2,t0
9d00619c:	00c8202b 	sltu	a0,a2,t0
9d0061a0:	14800006 	bnez	a0,9d0061bc <__udivdi3+0x3c0>
9d0061a4:	2583ffff 	addiu	v1,t4,-1
9d0061a8:	00ca202b 	sltu	a0,a2,t2
9d0061ac:	50800004 	beqzl	a0,9d0061c0 <__udivdi3+0x3c4>
9d0061b0:	00ca3023 	subu	a2,a2,t2
9d0061b4:	2583fffe 	addiu	v1,t4,-2
9d0061b8:	00c83021 	addu	a2,a2,t0
9d0061bc:	00ca3023 	subu	a2,a2,t2
9d0061c0:	30acffff 	andi	t4,a1,0xffff
9d0061c4:	00c7001b 	divu	zero,a2,a3
9d0061c8:	00e001f4 	teq	a3,zero,0x7
9d0061cc:	00002010 	mfhi	a0
9d0061d0:	00005012 	mflo	t2
9d0061d4:	00004812 	mflo	t1
9d0061d8:	714b2802 	mul	a1,t2,t3
9d0061dc:	00042400 	sll	a0,a0,0x10
9d0061e0:	008c2025 	or	a0,a0,t4
9d0061e4:	0085602b 	sltu	t4,a0,a1
9d0061e8:	00c7001b 	divu	zero,a2,a3
9d0061ec:	00e001f4 	teq	a3,zero,0x7
9d0061f0:	5180000b 	beqzl	t4,9d006220 <__udivdi3+0x424>
9d0061f4:	00031c00 	sll	v1,v1,0x10
9d0061f8:	00882021 	addu	a0,a0,t0
9d0061fc:	0088302b 	sltu	a2,a0,t0
9d006200:	14c00006 	bnez	a2,9d00621c <__udivdi3+0x420>
9d006204:	2549ffff 	addiu	t1,t2,-1
9d006208:	0085302b 	sltu	a2,a0,a1
9d00620c:	50c00004 	beqzl	a2,9d006220 <__udivdi3+0x424>
9d006210:	00031c00 	sll	v1,v1,0x10
9d006214:	2549fffe 	addiu	t1,t2,-2
9d006218:	00882021 	addu	a0,a0,t0
9d00621c:	00031c00 	sll	v1,v1,0x10
9d006220:	00852023 	subu	a0,a0,a1
9d006224:	0b4017d9 	j	9d005f64 <__udivdi3+0x168>
9d006228:	01231825 	or	v1,t1,v1
9d00622c:	0086302b 	sltu	a2,a0,a2
9d006230:	10c0ffc0 	beqz	a2,9d006134 <__udivdi3+0x338>
9d006234:	00000000 	nop
9d006238:	0b40184d 	j	9d006134 <__udivdi3+0x338>
9d00623c:	2442ffff 	addiu	v0,v0,-1
9d006240:	00001821 	move	v1,zero
9d006244:	03e00008 	jr	ra
9d006248:	24020001 	li	v0,1
9d00624c:	0b4017ee 	j	9d005fb8 <__udivdi3+0x1bc>
9d006250:	00c83021 	addu	a2,a2,t0

Disassembly of section .text.dp32subadd:

9d006254 <__subdf3>:
9d006254:	3c018000 00e13826                       ...<&8..

9d00625c <__adddf3>:
9d00625c:	00055840 000b5d42 000552c0 00047d42     @X..B]...R..B}..
9d00626c:	014f5025 00044ac0 3c088000 01485025     %PO..J.....<%PH.
9d00627c:	00077040 000e7542 00076ac0 00067d42     @p..Bu...j..B}..
9d00628c:	01af6825 000662c0 01a86825 256fffff     %h...b..%h....o%
9d00629c:	2de107fe 1020008d 00000000              ...-.. .....

9d0062a8 <Blab1>:
9d0062a8:	25cfffff 	addiu	t7,t6,-1
9d0062ac:	2de107fe 	sltiu	at,t7,2046
9d0062b0:	102000bb 	beqz	at,9d0065a0 <BspecB>
9d0062b4:	00000000 	nop

9d0062b8 <Blab2>:
9d0062b8:	3c018000 	lui	at,0x8000
9d0062bc:	00a12824 	and	a1,a1,at
9d0062c0:	016e4023 	subu	t0,t3,t6
9d0062c4:	1100002c 	beqz	t0,9d006378 <Badd3>
9d0062c8:	00000000 	nop
9d0062cc:	19000015 	blez	t0,9d006324 <i1>
9d0062d0:	00000000 	nop

9d0062d4 <L1>:
9d0062d4:	2d010020 	sltiu	at,t0,32
9d0062d8:	14200007 	bnez	at,9d0062f8 <L2>
9d0062dc:	00000000 	nop
9d0062e0:	2108ffe0 	addi	t0,t0,-32
9d0062e4:	000c302b 	sltu	a2,zero,t4
9d0062e8:	100d0023 	beq	zero,t5,9d006378 <Badd3>
9d0062ec:	01a66025 	or	t4,t5,a2
9d0062f0:	1000fff8 	b	9d0062d4 <L1>
9d0062f4:	340d0000 	li	t5,0x0

9d0062f8 <L2>:
9d0062f8:	1100001f 	beqz	t0,9d006378 <Badd3>
9d0062fc:	00000000 	nop
9d006300:	00082022 	neg	a0,t0
9d006304:	008c3004 	sllv	a2,t4,a0
9d006308:	008d2004 	sllv	a0,t5,a0
9d00630c:	010c6006 	srlv	t4,t4,t0
9d006310:	010d6806 	srlv	t5,t5,t0
9d006314:	10c00018 	beqz	a2,9d006378 <Badd3>
9d006318:	008c6025 	or	t4,a0,t4
9d00631c:	10000016 	b	9d006378 <Badd3>
9d006320:	358c0002 	ori	t4,t4,0x2

9d006324 <i1>:
9d006324:	000e5825 	or	t3,zero,t6
9d006328:	00084023 	negu	t0,t0

9d00632c <L4>:
9d00632c:	2d010020 	sltiu	at,t0,32
9d006330:	14200007 	bnez	at,9d006350 <L5>
9d006334:	00000000 	nop
9d006338:	2108ffe0 	addi	t0,t0,-32
9d00633c:	0009302b 	sltu	a2,zero,t1
9d006340:	100a000d 	beq	zero,t2,9d006378 <Badd3>
9d006344:	01464825 	or	t1,t2,a2
9d006348:	1000fff8 	b	9d00632c <L4>
9d00634c:	340a0000 	li	t2,0x0

9d006350 <L5>:
9d006350:	11000009 	beqz	t0,9d006378 <Badd3>
9d006354:	00000000 	nop
9d006358:	00082022 	neg	a0,t0
9d00635c:	00893004 	sllv	a2,t1,a0
9d006360:	008a2004 	sllv	a0,t2,a0
9d006364:	01094806 	srlv	t1,t1,t0
9d006368:	010a5006 	srlv	t2,t2,t0
9d00636c:	10c00002 	beqz	a2,9d006378 <Badd3>
9d006370:	00894825 	or	t1,a0,t1
9d006374:	35290002 	ori	t1,t1,0x2

9d006378 <Badd3>:
9d006378:	00a77826 	xor	t7,a1,a3
9d00637c:	05e0001c 	bltz	t7,9d0063f0 <Bsub1>
9d006380:	00000000 	nop
9d006384:	012c4821 	addu	t1,t1,t4
9d006388:	012c782b 	sltu	t7,t1,t4
9d00638c:	014d5021 	addu	t2,t2,t5
9d006390:	014f5021 	addu	t2,t2,t7
9d006394:	114d0002 	beq	t2,t5,9d0063a0 <L7>
9d006398:	00000000 	nop
9d00639c:	014d782b 	sltu	t7,t2,t5

9d0063a0 <L7>:
9d0063a0:	11e00037 	beqz	t7,9d006480 <Bres>
9d0063a4:	00000000 	nop
9d0063a8:	312f0001 	andi	t7,t1,0x1
9d0063ac:	11e00002 	beqz	t7,9d0063b8 <i3>
9d0063b0:	00000000 	nop
9d0063b4:	35290002 	ori	t1,t1,0x2

9d0063b8 <i3>:
9d0063b8:	00094842 	srl	t1,t1,0x1
9d0063bc:	000a7fc0 	sll	t7,t2,0x1f
9d0063c0:	012f4825 	or	t1,t1,t7
9d0063c4:	000a5042 	srl	t2,t2,0x1
9d0063c8:	3c018000 	lui	at,0x8000
9d0063cc:	01415025 	or	t2,t2,at
9d0063d0:	256b0001 	addiu	t3,t3,1
9d0063d4:	240107ff 	li	at,2047
9d0063d8:	15610029 	bne	t3,at,9d006480 <Bres>
9d0063dc:	00000000 	nop
9d0063e0:	3c017ff0 	lui	at,0x7ff0
9d0063e4:	00a12825 	or	a1,a1,at
9d0063e8:	10000037 	b	9d0064c8 <BretA>
9d0063ec:	24040000 	li	a0,0

9d0063f0 <Bsub1>:
9d0063f0:	012c782b 	sltu	t7,t1,t4
9d0063f4:	012c4823 	subu	t1,t1,t4
9d0063f8:	014f102b 	sltu	v0,t2,t7
9d0063fc:	014f5023 	subu	t2,t2,t7
9d006400:	014d782b 	sltu	t7,t2,t5
9d006404:	01e27825 	or	t7,t7,v0
9d006408:	11e00007 	beqz	t7,9d006428 <i5>
9d00640c:	014d5023 	subu	t2,t2,t5
9d006410:	3c018000 	lui	at,0x8000
9d006414:	00a12826 	xor	a1,a1,at
9d006418:	0009782b 	sltu	t7,zero,t1
9d00641c:	00094823 	negu	t1,t1
9d006420:	000a5023 	negu	t2,t2
9d006424:	014f5023 	subu	t2,t2,t7

9d006428 <i5>:
9d006428:	15400008 	bnez	t2,9d00644c <L8>
9d00642c:	00000000 	nop
9d006430:	15200003 	bnez	t1,9d006440 <L9>
9d006434:	00000000 	nop
9d006438:	1000000d 	b	9d006470 <L10>
9d00643c:	240b0000 	li	t3,0

9d006440 <L9>:
9d006440:	01205025 	move	t2,t1
9d006444:	24090000 	li	t1,0
9d006448:	256bffe0 	addiu	t3,t3,-32

9d00644c <L8>:
9d00644c:	71484020 	clz	t0,t2
9d006450:	11000007 	beqz	t0,9d006470 <L10>
9d006454:	00000000 	nop
9d006458:	01685823 	subu	t3,t3,t0
9d00645c:	00082022 	neg	a0,t0
9d006460:	00892006 	srlv	a0,t1,a0
9d006464:	01094804 	sllv	t1,t1,t0
9d006468:	010a5004 	sllv	t2,t2,t0
9d00646c:	01445025 	or	t2,t2,a0

9d006470 <L10>:
9d006470:	01497825 	or	t7,t2,t1
9d006474:	15e00002 	bnez	t7,9d006480 <Bres>
9d006478:	00000000 	nop
9d00647c:	24050000 	li	a1,0

9d006480 <Bres>:
9d006480:	19600068 	blez	t3,9d006624 <Bund>
9d006484:	00000000 	nop

9d006488 <Blab8>:
9d006488:	25290400 	addiu	t1,t1,1024
9d00648c:	2d2f0400 	sltiu	t7,t1,1024
9d006490:	014f5021 	addu	t2,t2,t7
9d006494:	014f782b 	sltu	t7,t2,t7
9d006498:	016f5821 	addu	t3,t3,t7
9d00649c:	00097ac2 	srl	t7,t1,0xb
9d0064a0:	31ef0001 	andi	t7,t7,0x1
9d0064a4:	012f4823 	subu	t1,t1,t7
9d0064a8:	000922c2 	srl	a0,t1,0xb
9d0064ac:	000a7d40 	sll	t7,t2,0x15
9d0064b0:	008f2025 	or	a0,a0,t7
9d0064b4:	000a7840 	sll	t7,t2,0x1
9d0064b8:	000f7b02 	srl	t7,t7,0xc
9d0064bc:	00af2825 	or	a1,a1,t7
9d0064c0:	000b7d00 	sll	t7,t3,0x14
9d0064c4:	00af2825 	or	a1,a1,t7

9d0064c8 <BretA>:
9d0064c8:	00041025 	or	v0,zero,a0
9d0064cc:	00051825 	or	v1,zero,a1

9d0064d0 <B999>:
9d0064d0:	03e00008 	jr	ra
9d0064d4:	00000000 	nop

9d0064d8 <BspecA>:
9d0064d8:	0120782a 	slt	t7,t1,zero
9d0064dc:	01294821 	addu	t1,t1,t1
9d0064e0:	014a5021 	addu	t2,t2,t2
9d0064e4:	15600023 	bnez	t3,9d006574 <i7>
9d0064e8:	014f5021 	addu	t2,t2,t7
9d0064ec:	01497825 	or	t7,t2,t1
9d0064f0:	11e00014 	beqz	t7,9d006544 <i8>
9d0064f4:	00000000 	nop
9d0064f8:	15400008 	bnez	t2,9d00651c <L11>
9d0064fc:	00000000 	nop
9d006500:	15200003 	bnez	t1,9d006510 <L12>
9d006504:	00000000 	nop
9d006508:	1000ff67 	b	9d0062a8 <Blab1>
9d00650c:	240b0000 	li	t3,0

9d006510 <L12>:
9d006510:	01205025 	move	t2,t1
9d006514:	24090000 	li	t1,0
9d006518:	256bffe0 	addiu	t3,t3,-32

9d00651c <L11>:
9d00651c:	71484020 	clz	t0,t2
9d006520:	1100ff61 	beqz	t0,9d0062a8 <Blab1>
9d006524:	00000000 	nop
9d006528:	01685823 	subu	t3,t3,t0
9d00652c:	00082022 	neg	a0,t0
9d006530:	00892006 	srlv	a0,t1,a0
9d006534:	01094804 	sllv	t1,t1,t0
9d006538:	010a5004 	sllv	t2,t2,t0
9d00653c:	1000ff5a 	b	9d0062a8 <Blab1>
9d006540:	01445025 	or	t2,t2,a0

9d006544 <i8>:
9d006544:	240107ff 	li	at,2047
9d006548:	11c10015 	beq	t6,at,9d0065a0 <BspecB>
9d00654c:	00000000 	nop
9d006550:	00e74021 	addu	t0,a3,a3
9d006554:	01067825 	or	t7,t0,a2
9d006558:	15e00003 	bnez	t7,9d006568 <BretB>
9d00655c:	00000000 	nop
9d006560:	04e0ffd9 	bltz	a3,9d0064c8 <BretA>
9d006564:	00000000 	nop

9d006568 <BretB>:
9d006568:	00061025 	or	v0,zero,a2
9d00656c:	1000ffd8 	b	9d0064d0 <B999>
9d006570:	00071825 	or	v1,zero,a3

9d006574 <i7>:
9d006574:	01497825 	or	t7,t2,t1
9d006578:	15e00027 	bnez	t7,9d006618 <Bnan>
9d00657c:	00000000 	nop
9d006580:	240107ff 	li	at,2047
9d006584:	15c1ffd0 	bne	t6,at,9d0064c8 <BretA>
9d006588:	00000000 	nop
9d00658c:	00a77826 	xor	t7,a1,a3
9d006590:	05e00021 	bltz	t7,9d006618 <Bnan>
9d006594:	00000000 	nop
9d006598:	1000fff3 	b	9d006568 <BretB>
9d00659c:	00000000 	nop

9d0065a0 <BspecB>:
9d0065a0:	0180782a 	slt	t7,t4,zero
9d0065a4:	018c6021 	addu	t4,t4,t4
9d0065a8:	01ad6821 	addu	t5,t5,t5
9d0065ac:	15c00017 	bnez	t6,9d00660c <i11>
9d0065b0:	01af6821 	addu	t5,t5,t7
9d0065b4:	01ac7825 	or	t7,t5,t4
9d0065b8:	11e0ffc3 	beqz	t7,9d0064c8 <BretA>
9d0065bc:	00000000 	nop
9d0065c0:	15a00008 	bnez	t5,9d0065e4 <L14>
9d0065c4:	00000000 	nop
9d0065c8:	15800003 	bnez	t4,9d0065d8 <L15>
9d0065cc:	00000000 	nop
9d0065d0:	1000ff39 	b	9d0062b8 <Blab2>
9d0065d4:	240e0000 	li	t6,0

9d0065d8 <L15>:
9d0065d8:	01806825 	move	t5,t4
9d0065dc:	240c0000 	li	t4,0
9d0065e0:	25ceffe0 	addiu	t6,t6,-32

9d0065e4 <L14>:
9d0065e4:	71a84020 	clz	t0,t5
9d0065e8:	1100ff33 	beqz	t0,9d0062b8 <Blab2>
9d0065ec:	00000000 	nop
9d0065f0:	01c87023 	subu	t6,t6,t0
9d0065f4:	00082022 	neg	a0,t0
9d0065f8:	008c2006 	srlv	a0,t4,a0
9d0065fc:	010c6004 	sllv	t4,t4,t0
9d006600:	010d6804 	sllv	t5,t5,t0
9d006604:	1000ff2c 	b	9d0062b8 <Blab2>
9d006608:	01a46825 	or	t5,t5,a0

9d00660c <i11>:
9d00660c:	01ac7825 	or	t7,t5,t4
9d006610:	11e0ffd5 	beqz	t7,9d006568 <BretB>
9d006614:	00000000 	nop

9d006618 <Bnan>:
9d006618:	3c05fff8 	lui	a1,0xfff8
9d00661c:	1000ffaa 	b	9d0064c8 <BretA>
9d006620:	24040000 	li	a0,0

9d006624 <Bund>:
9d006624:	24080001 	li	t0,1
9d006628:	010b4023 	subu	t0,t0,t3

9d00662c <L17>:
9d00662c:	2d010020 	sltiu	at,t0,32
9d006630:	14200007 	bnez	at,9d006650 <L18>
9d006634:	00000000 	nop
9d006638:	2108ffe0 	addi	t0,t0,-32
9d00663c:	0009302b 	sltu	a2,zero,t1
9d006640:	100a000d 	beq	zero,t2,9d006678 <L19>
9d006644:	01464825 	or	t1,t2,a2
9d006648:	1000fff8 	b	9d00662c <L17>
9d00664c:	340a0000 	li	t2,0x0

9d006650 <L18>:
9d006650:	11000009 	beqz	t0,9d006678 <L19>
9d006654:	00000000 	nop
9d006658:	00082022 	neg	a0,t0
9d00665c:	00893004 	sllv	a2,t1,a0
9d006660:	008a2004 	sllv	a0,t2,a0
9d006664:	01094806 	srlv	t1,t1,t0
9d006668:	010a5006 	srlv	t2,t2,t0
9d00666c:	10c00002 	beqz	a2,9d006678 <L19>
9d006670:	00894825 	or	t1,a0,t1
9d006674:	35290002 	ori	t1,t1,0x2

9d006678 <L19>:
9d006678:	1000ff83 	b	9d006488 <Blab8>
9d00667c:	240b0000 	li	t3,0
9d006680:	00000000 	nop

Disassembly of section .text.__strtod:

9d006684 <__strtod>:
9d006684:	27bdffc8 	addiu	sp,sp,-56
9d006688:	afbf0034 	sw	ra,52(sp)
9d00668c:	afbe0030 	sw	s8,48(sp)
9d006690:	afb7002c 	sw	s7,44(sp)
9d006694:	afb60028 	sw	s6,40(sp)
9d006698:	afb50024 	sw	s5,36(sp)
9d00669c:	afb40020 	sw	s4,32(sp)
9d0066a0:	afb3001c 	sw	s3,28(sp)
9d0066a4:	afb20018 	sw	s2,24(sp)
9d0066a8:	afb10014 	sw	s1,20(sp)
9d0066ac:	afb00010 	sw	s0,16(sp)
9d0066b0:	0080b821 	move	s7,a0
9d0066b4:	80820000 	lb	v0,0(a0)
9d0066b8:	3c1e9d01 	lui	s8,0x9d01
9d0066bc:	27de8cc9 	addiu	s8,s8,-29495
9d0066c0:	03c21821 	addu	v1,s8,v0
9d0066c4:	80630000 	lb	v1,0(v1)
9d0066c8:	00a0a821 	move	s5,a1
9d0066cc:	30630088 	andi	v1,v1,0x88
9d0066d0:	10600008 	beqz	v1,9d0066f4 <__strtod+0x70>
9d0066d4:	0080a021 	move	s4,a0
9d0066d8:	26940001 	addiu	s4,s4,1
9d0066dc:	82820000 	lb	v0,0(s4)
9d0066e0:	03c21821 	addu	v1,s8,v0
9d0066e4:	80630000 	lb	v1,0(v1)
9d0066e8:	30630088 	andi	v1,v1,0x88
9d0066ec:	5460fffb 	bnezl	v1,9d0066dc <__strtod+0x58>
9d0066f0:	26940001 	addiu	s4,s4,1
9d0066f4:	2403002d 	li	v1,45
9d0066f8:	10430098 	beq	v0,v1,9d00695c <__strtod+0x2d8>
9d0066fc:	3842002b 	xori	v0,v0,0x2b
9d006700:	2c420001 	sltiu	v0,v0,1
9d006704:	00009821 	move	s3,zero
9d006708:	0282a021 	addu	s4,s4,v0
9d00670c:	82860000 	lb	a2,0(s4)
9d006710:	03c61021 	addu	v0,s8,a2
9d006714:	90420000 	lbu	v0,0(v0)
9d006718:	30420004 	andi	v0,v0,0x4
9d00671c:	00008821 	move	s1,zero
9d006720:	104000bc 	beqz	v0,9d006a14 <__strtod+0x390>
9d006724:	00008021 	move	s0,zero
9d006728:	00009021 	move	s2,zero
9d00672c:	24d6ffd0 	addiu	s6,a2,-48
9d006730:	02002821 	move	a1,s0
9d006734:	02202021 	move	a0,s1
9d006738:	00003021 	move	a2,zero
9d00673c:	0f401b6b 	jal	9d006dac <.LFE23>
9d006740:	3c074024 	lui	a3,0x4024
9d006744:	00408021 	move	s0,v0
9d006748:	00608821 	move	s1,v1
9d00674c:	0f4025ee 	jal	9d0097b8 <__floatsidf>
9d006750:	02c02021 	move	a0,s6
9d006754:	02002021 	move	a0,s0
9d006758:	02202821 	move	a1,s1
9d00675c:	00403021 	move	a2,v0
9d006760:	00603821 	move	a3,v1
9d006764:	0f401897 	jal	9d00625c <__adddf3>
9d006768:	26940001 	addiu	s4,s4,1
9d00676c:	00408821 	move	s1,v0
9d006770:	00608021 	move	s0,v1
9d006774:	82860000 	lb	a2,0(s4)
9d006778:	03c61021 	addu	v0,s8,a2
9d00677c:	90420000 	lbu	v0,0(v0)
9d006780:	30420004 	andi	v0,v0,0x4
9d006784:	1440ffe9 	bnez	v0,9d00672c <__strtod+0xa8>
9d006788:	02569025 	or	s2,s2,s6
9d00678c:	24030001 	li	v1,1
9d006790:	2402002e 	li	v0,46
9d006794:	50c20048 	beql	a2,v0,9d0068b8 <__strtod+0x234>
9d006798:	82820001 	lb	v0,1(s4)
9d00679c:	54600072 	bnezl	v1,9d006968 <__strtod+0x2e4>
9d0067a0:	82820000 	lb	v0,0(s4)
9d0067a4:	12a0002a 	beqz	s5,9d006850 <__strtod+0x1cc>
9d0067a8:	00000000 	nop
9d0067ac:	02e0a021 	move	s4,s7
9d0067b0:	0000b821 	move	s7,zero
9d0067b4:	aeb40000 	sw	s4,0(s5)
9d0067b8:	12e00025 	beqz	s7,9d006850 <__strtod+0x1cc>
9d0067bc:	00004021 	move	t0,zero
9d0067c0:	001717c3 	sra	v0,s7,0x1f
9d0067c4:	0057b026 	xor	s6,v0,s7
9d0067c8:	02c2b023 	subu	s6,s6,v0
9d0067cc:	3c159d01 	lui	s5,0x9d01
9d0067d0:	26b59c98 	addiu	s5,s5,-25448
9d0067d4:	3c093ff0 	lui	t1,0x3ff0
9d0067d8:	0b4019fa 	j	9d0067e8 <__strtod+0x164>
9d0067dc:	24140009 	li	s4,9
9d0067e0:	1280000e 	beqz	s4,9d00681c <__strtod+0x198>
9d0067e4:	26b5fff8 	addiu	s5,s5,-8
9d0067e8:	2694ffff 	addiu	s4,s4,-1
9d0067ec:	02961007 	srav	v0,s6,s4
9d0067f0:	30420001 	andi	v0,v0,0x1
9d0067f4:	1040fffa 	beqz	v0,9d0067e0 <__strtod+0x15c>
9d0067f8:	01002021 	move	a0,t0
9d0067fc:	8ea60000 	lw	a2,0(s5)
9d006800:	8ea70004 	lw	a3,4(s5)
9d006804:	0f401b6b 	jal	9d006dac <.LFE23>
9d006808:	01202821 	move	a1,t1
9d00680c:	00404021 	move	t0,v0
9d006810:	00604821 	move	t1,v1
9d006814:	1680fff4 	bnez	s4,9d0067e8 <__strtod+0x164>
9d006818:	26b5fff8 	addiu	s5,s5,-8
9d00681c:	02202021 	move	a0,s1
9d006820:	02002821 	move	a1,s0
9d006824:	01003021 	move	a2,t0
9d006828:	06e00075 	bltz	s7,9d006a00 <__strtod+0x37c>
9d00682c:	01203821 	move	a3,t1
9d006830:	0f401b6b 	jal	9d006dac <.LFE23>
9d006834:	00000000 	nop
9d006838:	00402021 	move	a0,v0
9d00683c:	00602821 	move	a1,v1
9d006840:	0f401fb9 	jal	9d007ee4 <.LFE9>
9d006844:	02e03021 	move	a2,s7
9d006848:	00408821 	move	s1,v0
9d00684c:	00608021 	move	s0,v1
9d006850:	1220007b 	beqz	s1,9d006a40 <__strtod+0x3bc>
9d006854:	7e02f000 	ext	v0,s0,0x0,0x1f
9d006858:	02301025 	or	v0,s1,s0
9d00685c:	10400073 	beqz	v0,9d006a2c <__strtod+0x3a8>
9d006860:	00000000 	nop
9d006864:	12600007 	beqz	s3,9d006884 <__strtod+0x200>
9d006868:	02201021 	move	v0,s1
9d00686c:	02202021 	move	a0,s1
9d006870:	0f40278a 	jal	9d009e28 <.LFE1>
9d006874:	02002821 	move	a1,s0
9d006878:	00408821 	move	s1,v0
9d00687c:	00608021 	move	s0,v1
9d006880:	02201021 	move	v0,s1
9d006884:	02001821 	move	v1,s0
9d006888:	8fbf0034 	lw	ra,52(sp)
9d00688c:	8fbe0030 	lw	s8,48(sp)
9d006890:	8fb7002c 	lw	s7,44(sp)
9d006894:	8fb60028 	lw	s6,40(sp)
9d006898:	8fb50024 	lw	s5,36(sp)
9d00689c:	8fb40020 	lw	s4,32(sp)
9d0068a0:	8fb3001c 	lw	s3,28(sp)
9d0068a4:	8fb20018 	lw	s2,24(sp)
9d0068a8:	8fb10014 	lw	s1,20(sp)
9d0068ac:	8fb00010 	lw	s0,16(sp)
9d0068b0:	03e00008 	jr	ra
9d0068b4:	27bd0038 	addiu	sp,sp,56
9d0068b8:	03c22021 	addu	a0,s8,v0
9d0068bc:	90840000 	lbu	a0,0(a0)
9d0068c0:	30840004 	andi	a0,a0,0x4
9d0068c4:	1080ffb5 	beqz	a0,9d00679c <__strtod+0x118>
9d0068c8:	26940001 	addiu	s4,s4,1
9d0068cc:	0000b821 	move	s7,zero
9d0068d0:	2456ffd0 	addiu	s6,v0,-48
9d0068d4:	02002821 	move	a1,s0
9d0068d8:	02202021 	move	a0,s1
9d0068dc:	00003021 	move	a2,zero
9d0068e0:	0f401b6b 	jal	9d006dac <.LFE23>
9d0068e4:	3c074024 	lui	a3,0x4024
9d0068e8:	00408021 	move	s0,v0
9d0068ec:	00608821 	move	s1,v1
9d0068f0:	0f4025ee 	jal	9d0097b8 <__floatsidf>
9d0068f4:	02c02021 	move	a0,s6
9d0068f8:	02002021 	move	a0,s0
9d0068fc:	02202821 	move	a1,s1
9d006900:	00403021 	move	a2,v0
9d006904:	00603821 	move	a3,v1
9d006908:	0f401897 	jal	9d00625c <__adddf3>
9d00690c:	26940001 	addiu	s4,s4,1
9d006910:	00408821 	move	s1,v0
9d006914:	00608021 	move	s0,v1
9d006918:	82820000 	lb	v0,0(s4)
9d00691c:	02569025 	or	s2,s2,s6
9d006920:	03c21821 	addu	v1,s8,v0
9d006924:	90630000 	lbu	v1,0(v1)
9d006928:	30630004 	andi	v1,v1,0x4
9d00692c:	1460ffe8 	bnez	v1,9d0068d0 <__strtod+0x24c>
9d006930:	26f7ffff 	addiu	s7,s7,-1
9d006934:	2403ffdf 	li	v1,-33
9d006938:	00431824 	and	v1,v0,v1
9d00693c:	7c031c20 	seb	v1,v1
9d006940:	24020045 	li	v0,69
9d006944:	5062000f 	beql	v1,v0,9d006984 <__strtod+0x300>
9d006948:	82830001 	lb	v1,1(s4)
9d00694c:	56a0ff9a 	bnezl	s5,9d0067b8 <__strtod+0x134>
9d006950:	aeb40000 	sw	s4,0(s5)
9d006954:	0b4019ee 	j	9d0067b8 <__strtod+0x134>
9d006958:	00000000 	nop
9d00695c:	26940001 	addiu	s4,s4,1
9d006960:	0b4019c3 	j	9d00670c <__strtod+0x88>
9d006964:	24130001 	li	s3,1
9d006968:	2403ffdf 	li	v1,-33
9d00696c:	00431824 	and	v1,v0,v1
9d006970:	7c031c20 	seb	v1,v1
9d006974:	24020045 	li	v0,69
9d006978:	1462fff4 	bne	v1,v0,9d00694c <__strtod+0x2c8>
9d00697c:	0000b821 	move	s7,zero
9d006980:	82830001 	lb	v1,1(s4)
9d006984:	2402002d 	li	v0,45
9d006988:	10620019 	beq	v1,v0,9d0069f0 <__strtod+0x36c>
9d00698c:	2402002b 	li	v0,43
9d006990:	50620023 	beql	v1,v0,9d006a20 <__strtod+0x39c>
9d006994:	82830002 	lb	v1,2(s4)
9d006998:	26940001 	addiu	s4,s4,1
9d00699c:	00003821 	move	a3,zero
9d0069a0:	03c31021 	addu	v0,s8,v1
9d0069a4:	90420000 	lbu	v0,0(v0)
9d0069a8:	30420004 	andi	v0,v0,0x4
9d0069ac:	1040000c 	beqz	v0,9d0069e0 <__strtod+0x35c>
9d0069b0:	00001021 	move	v0,zero
9d0069b4:	26940001 	addiu	s4,s4,1
9d0069b8:	2465ffd0 	addiu	a1,v1,-48
9d0069bc:	82830000 	lb	v1,0(s4)
9d0069c0:	00023040 	sll	a2,v0,0x1
9d0069c4:	000210c0 	sll	v0,v0,0x3
9d0069c8:	03c32021 	addu	a0,s8,v1
9d0069cc:	90840000 	lbu	a0,0(a0)
9d0069d0:	00c21021 	addu	v0,a2,v0
9d0069d4:	30840004 	andi	a0,a0,0x4
9d0069d8:	1480fff6 	bnez	a0,9d0069b4 <__strtod+0x330>
9d0069dc:	00451021 	addu	v0,v0,a1
9d0069e0:	00021823 	negu	v1,v0
9d0069e4:	0067100b 	movn	v0,v1,a3
9d0069e8:	0b401a53 	j	9d00694c <__strtod+0x2c8>
9d0069ec:	02e2b821 	addu	s7,s7,v0
9d0069f0:	82830002 	lb	v1,2(s4)
9d0069f4:	24070001 	li	a3,1
9d0069f8:	0b401a68 	j	9d0069a0 <__strtod+0x31c>
9d0069fc:	26940002 	addiu	s4,s4,2
9d006a00:	0f401422 	jal	9d005088 <.LFE2>
9d006a04:	00000000 	nop
9d006a08:	00402021 	move	a0,v0
9d006a0c:	0b401a10 	j	9d006840 <__strtod+0x1bc>
9d006a10:	00602821 	move	a1,v1
9d006a14:	00001821 	move	v1,zero
9d006a18:	0b4019e4 	j	9d006790 <__strtod+0x10c>
9d006a1c:	00009021 	move	s2,zero
9d006a20:	00003821 	move	a3,zero
9d006a24:	0b401a68 	j	9d0069a0 <__strtod+0x31c>
9d006a28:	26940002 	addiu	s4,s4,2
9d006a2c:	1240ff8d 	beqz	s2,9d006864 <__strtod+0x1e0>
9d006a30:	24030022 	li	v1,34
9d006a34:	3c02a000 	lui	v0,0xa000
9d006a38:	0b401a19 	j	9d006864 <__strtod+0x1e0>
9d006a3c:	ac4324fc 	sw	v1,9468(v0)
9d006a40:	3c037ff0 	lui	v1,0x7ff0
9d006a44:	1443ff85 	bne	v0,v1,9d00685c <__strtod+0x1d8>
9d006a48:	02301025 	or	v0,s1,s0
9d006a4c:	0b401a8d 	j	9d006a34 <__strtod+0x3b0>
9d006a50:	24030022 	li	v1,34

Disassembly of section .text.__strtof:

9d006a54 <__strtof>:
9d006a54:	27bdffc8 	addiu	sp,sp,-56
9d006a58:	afbf0034 	sw	ra,52(sp)
9d006a5c:	afb70030 	sw	s7,48(sp)
9d006a60:	afb6002c 	sw	s6,44(sp)
9d006a64:	afb50028 	sw	s5,40(sp)
9d006a68:	afb40024 	sw	s4,36(sp)
9d006a6c:	afb30020 	sw	s3,32(sp)
9d006a70:	afb2001c 	sw	s2,28(sp)
9d006a74:	afb10018 	sw	s1,24(sp)
9d006a78:	afb00014 	sw	s0,20(sp)
9d006a7c:	0080a821 	move	s5,a0
9d006a80:	80820000 	lb	v0,0(a0)
9d006a84:	3c139d01 	lui	s3,0x9d01
9d006a88:	26738cc9 	addiu	s3,s3,-29495
9d006a8c:	02621821 	addu	v1,s3,v0
9d006a90:	80630000 	lb	v1,0(v1)
9d006a94:	00a0b021 	move	s6,a1
9d006a98:	30630088 	andi	v1,v1,0x88
9d006a9c:	10600008 	beqz	v1,9d006ac0 <__strtof+0x6c>
9d006aa0:	00808021 	move	s0,a0
9d006aa4:	26100001 	addiu	s0,s0,1
9d006aa8:	82020000 	lb	v0,0(s0)
9d006aac:	02621821 	addu	v1,s3,v0
9d006ab0:	80630000 	lb	v1,0(v1)
9d006ab4:	30630088 	andi	v1,v1,0x88
9d006ab8:	5460fffb 	bnezl	v1,9d006aa8 <__strtof+0x54>
9d006abc:	26100001 	addiu	s0,s0,1
9d006ac0:	2403002d 	li	v1,45
9d006ac4:	10430081 	beq	v0,v1,9d006ccc <__strtof+0x278>
9d006ac8:	3842002b 	xori	v0,v0,0x2b
9d006acc:	2c420001 	sltiu	v0,v0,1
9d006ad0:	0000b821 	move	s7,zero
9d006ad4:	02028021 	addu	s0,s0,v0
9d006ad8:	82030000 	lb	v1,0(s0)
9d006adc:	02631021 	addu	v0,s3,v1
9d006ae0:	90420000 	lbu	v0,0(v0)
9d006ae4:	30420004 	andi	v0,v0,0x4
9d006ae8:	104000a5 	beqz	v0,9d006d80 <__strtof+0x32c>
9d006aec:	00008821 	move	s1,zero
9d006af0:	0000a021 	move	s4,zero
9d006af4:	2472ffd0 	addiu	s2,v1,-48
9d006af8:	02202021 	move	a0,s1
9d006afc:	0f401edd 	jal	9d007b74 <.LFE4>
9d006b00:	3c054120 	lui	a1,0x4120
9d006b04:	00408821 	move	s1,v0
9d006b08:	0f40265d 	jal	9d009974 <__floatsisf>
9d006b0c:	02402021 	move	a0,s2
9d006b10:	02202021 	move	a0,s1
9d006b14:	00402821 	move	a1,v0
9d006b18:	0f401c38 	jal	9d0070e0 <__addsf3>
9d006b1c:	26100001 	addiu	s0,s0,1
9d006b20:	00408821 	move	s1,v0
9d006b24:	82030000 	lb	v1,0(s0)
9d006b28:	02631021 	addu	v0,s3,v1
9d006b2c:	90420000 	lbu	v0,0(v0)
9d006b30:	30420004 	andi	v0,v0,0x4
9d006b34:	1440ffef 	bnez	v0,9d006af4 <__strtof+0xa0>
9d006b38:	0292a025 	or	s4,s4,s2
9d006b3c:	24040001 	li	a0,1
9d006b40:	2402002e 	li	v0,46
9d006b44:	5062003e 	beql	v1,v0,9d006c40 <__strtof+0x1ec>
9d006b48:	82020001 	lb	v0,1(s0)
9d006b4c:	54800062 	bnezl	a0,9d006cd8 <__strtof+0x284>
9d006b50:	82020000 	lb	v0,0(s0)
9d006b54:	12c00024 	beqz	s6,9d006be8 <__strtof+0x194>
9d006b58:	00111840 	sll	v1,s1,0x1
9d006b5c:	02a08021 	move	s0,s5
9d006b60:	00009021 	move	s2,zero
9d006b64:	aed00000 	sw	s0,0(s6)
9d006b68:	1240001f 	beqz	s2,9d006be8 <__strtof+0x194>
9d006b6c:	00111840 	sll	v1,s1,0x1
9d006b70:	001217c3 	sra	v0,s2,0x1f
9d006b74:	0052a826 	xor	s5,v0,s2
9d006b78:	02a2a823 	subu	s5,s5,v0
9d006b7c:	3c139d01 	lui	s3,0x9d01
9d006b80:	26739f90 	addiu	s3,s3,-24688
9d006b84:	24100006 	li	s0,6
9d006b88:	0b401ae6 	j	9d006b98 <__strtof+0x144>
9d006b8c:	3c023f80 	lui	v0,0x3f80
9d006b90:	1200000b 	beqz	s0,9d006bc0 <__strtof+0x16c>
9d006b94:	2673fffc 	addiu	s3,s3,-4
9d006b98:	2610ffff 	addiu	s0,s0,-1
9d006b9c:	02151807 	srav	v1,s5,s0
9d006ba0:	30630001 	andi	v1,v1,0x1
9d006ba4:	1060fffa 	beqz	v1,9d006b90 <__strtof+0x13c>
9d006ba8:	00000000 	nop
9d006bac:	8e650000 	lw	a1,0(s3)
9d006bb0:	0f401edd 	jal	9d007b74 <.LFE4>
9d006bb4:	00402021 	move	a0,v0
9d006bb8:	1600fff7 	bnez	s0,9d006b98 <__strtof+0x144>
9d006bbc:	2673fffc 	addiu	s3,s3,-4
9d006bc0:	02202021 	move	a0,s1
9d006bc4:	0640006a 	bltz	s2,9d006d70 <__strtof+0x31c>
9d006bc8:	00402821 	move	a1,v0
9d006bcc:	0f401edd 	jal	9d007b74 <.LFE4>
9d006bd0:	00000000 	nop
9d006bd4:	00402021 	move	a0,v0
9d006bd8:	0f402373 	jal	9d008dcc <__ldexpf>
9d006bdc:	02402821 	move	a1,s2
9d006be0:	00408821 	move	s1,v0
9d006be4:	00111840 	sll	v1,s1,0x1
9d006be8:	3c02ff00 	lui	v0,0xff00
9d006bec:	5062006c 	beql	v1,v0,9d006da0 <__strtof+0x34c>
9d006bf0:	24030022 	li	v1,34
9d006bf4:	12200068 	beqz	s1,9d006d98 <__strtof+0x344>
9d006bf8:	00000000 	nop
9d006bfc:	12e00005 	beqz	s7,9d006c14 <__strtof+0x1c0>
9d006c00:	02201021 	move	v0,s1
9d006c04:	0f4027e5 	jal	9d009f94 <__negsf2>
9d006c08:	02202021 	move	a0,s1
9d006c0c:	00408821 	move	s1,v0
9d006c10:	02201021 	move	v0,s1
9d006c14:	8fbf0034 	lw	ra,52(sp)
9d006c18:	8fb70030 	lw	s7,48(sp)
9d006c1c:	8fb6002c 	lw	s6,44(sp)
9d006c20:	8fb50028 	lw	s5,40(sp)
9d006c24:	8fb40024 	lw	s4,36(sp)
9d006c28:	8fb30020 	lw	s3,32(sp)
9d006c2c:	8fb2001c 	lw	s2,28(sp)
9d006c30:	8fb10018 	lw	s1,24(sp)
9d006c34:	8fb00014 	lw	s0,20(sp)
9d006c38:	03e00008 	jr	ra
9d006c3c:	27bd0038 	addiu	sp,sp,56
9d006c40:	02621821 	addu	v1,s3,v0
9d006c44:	90630000 	lbu	v1,0(v1)
9d006c48:	30630004 	andi	v1,v1,0x4
9d006c4c:	1060ffbf 	beqz	v1,9d006b4c <__strtof+0xf8>
9d006c50:	26100001 	addiu	s0,s0,1
9d006c54:	00009021 	move	s2,zero
9d006c58:	2455ffd0 	addiu	s5,v0,-48
9d006c5c:	02202021 	move	a0,s1
9d006c60:	0f401edd 	jal	9d007b74 <.LFE4>
9d006c64:	3c054120 	lui	a1,0x4120
9d006c68:	00408821 	move	s1,v0
9d006c6c:	0f40265d 	jal	9d009974 <__floatsisf>
9d006c70:	02a02021 	move	a0,s5
9d006c74:	02202021 	move	a0,s1
9d006c78:	00402821 	move	a1,v0
9d006c7c:	0f401c38 	jal	9d0070e0 <__addsf3>
9d006c80:	26100001 	addiu	s0,s0,1
9d006c84:	00408821 	move	s1,v0
9d006c88:	82020000 	lb	v0,0(s0)
9d006c8c:	0295a025 	or	s4,s4,s5
9d006c90:	02621821 	addu	v1,s3,v0
9d006c94:	90630000 	lbu	v1,0(v1)
9d006c98:	30630004 	andi	v1,v1,0x4
9d006c9c:	1460ffee 	bnez	v1,9d006c58 <__strtof+0x204>
9d006ca0:	2652ffff 	addiu	s2,s2,-1
9d006ca4:	2403ffdf 	li	v1,-33
9d006ca8:	00431824 	and	v1,v0,v1
9d006cac:	7c031c20 	seb	v1,v1
9d006cb0:	24020045 	li	v0,69
9d006cb4:	5062000f 	beql	v1,v0,9d006cf4 <__strtof+0x2a0>
9d006cb8:	82030001 	lb	v1,1(s0)
9d006cbc:	56c0ffaa 	bnezl	s6,9d006b68 <__strtof+0x114>
9d006cc0:	aed00000 	sw	s0,0(s6)
9d006cc4:	0b401ada 	j	9d006b68 <__strtof+0x114>
9d006cc8:	00000000 	nop
9d006ccc:	26100001 	addiu	s0,s0,1
9d006cd0:	0b401ab6 	j	9d006ad8 <__strtof+0x84>
9d006cd4:	24170001 	li	s7,1
9d006cd8:	2403ffdf 	li	v1,-33
9d006cdc:	00431824 	and	v1,v0,v1
9d006ce0:	7c031c20 	seb	v1,v1
9d006ce4:	24020045 	li	v0,69
9d006ce8:	1462fff4 	bne	v1,v0,9d006cbc <__strtof+0x268>
9d006cec:	00009021 	move	s2,zero
9d006cf0:	82030001 	lb	v1,1(s0)
9d006cf4:	2402002d 	li	v0,45
9d006cf8:	10620019 	beq	v1,v0,9d006d60 <__strtof+0x30c>
9d006cfc:	2402002b 	li	v0,43
9d006d00:	50620022 	beql	v1,v0,9d006d8c <__strtof+0x338>
9d006d04:	82030002 	lb	v1,2(s0)
9d006d08:	26100001 	addiu	s0,s0,1
9d006d0c:	00003821 	move	a3,zero
9d006d10:	02631021 	addu	v0,s3,v1
9d006d14:	90420000 	lbu	v0,0(v0)
9d006d18:	30420004 	andi	v0,v0,0x4
9d006d1c:	1040000c 	beqz	v0,9d006d50 <__strtof+0x2fc>
9d006d20:	00001021 	move	v0,zero
9d006d24:	26100001 	addiu	s0,s0,1
9d006d28:	2465ffd0 	addiu	a1,v1,-48
9d006d2c:	82030000 	lb	v1,0(s0)
9d006d30:	00023040 	sll	a2,v0,0x1
9d006d34:	000210c0 	sll	v0,v0,0x3
9d006d38:	02632021 	addu	a0,s3,v1
9d006d3c:	90840000 	lbu	a0,0(a0)
9d006d40:	00c21021 	addu	v0,a2,v0
9d006d44:	30840004 	andi	a0,a0,0x4
9d006d48:	1480fff6 	bnez	a0,9d006d24 <__strtof+0x2d0>
9d006d4c:	00451021 	addu	v0,v0,a1
9d006d50:	00021823 	negu	v1,v0
9d006d54:	0067100b 	movn	v0,v1,a3
9d006d58:	0b401b2f 	j	9d006cbc <__strtof+0x268>
9d006d5c:	02429021 	addu	s2,s2,v0
9d006d60:	82030002 	lb	v1,2(s0)
9d006d64:	24070001 	li	a3,1
9d006d68:	0b401b44 	j	9d006d10 <__strtof+0x2bc>
9d006d6c:	26100002 	addiu	s0,s0,2
9d006d70:	0f401cd4 	jal	9d007350 <__divsf3>
9d006d74:	00000000 	nop
9d006d78:	0b401af6 	j	9d006bd8 <__strtof+0x184>
9d006d7c:	00402021 	move	a0,v0
9d006d80:	00002021 	move	a0,zero
9d006d84:	0b401ad0 	j	9d006b40 <__strtof+0xec>
9d006d88:	0000a021 	move	s4,zero
9d006d8c:	00003821 	move	a3,zero
9d006d90:	0b401b44 	j	9d006d10 <__strtof+0x2bc>
9d006d94:	26100002 	addiu	s0,s0,2
9d006d98:	1280ff98 	beqz	s4,9d006bfc <__strtof+0x1a8>
9d006d9c:	24030022 	li	v1,34
9d006da0:	3c02a000 	lui	v0,0xa000
9d006da4:	0b401aff 	j	9d006bfc <__strtof+0x1a8>
9d006da8:	ac4324fc 	sw	v1,9468(v0)

Disassembly of section .text.dp32mul:

9d006dac <__muldf3>:
9d006dac:	00055040 000a5542 00054ac0 00047d42     @P..BU...J..B}..
9d006dbc:	012f4825 000442c0 3c0e8000 012e4825     %H/..B.....<%H..
9d006dcc:	00076840 000d6d42 000762c0 00067d42     @h..Bm...b..B}..
9d006ddc:	018f6025 00065ac0 018e6025 00a72826     %`...Z..%`..&(..
9d006dec:	00ae2824 254fffff 2de107fe 10200047     $(....O%...-G. .
9d006dfc:	00000000                                ....

9d006e00 <Clab1>:
9d006e00:	25afffff 	addiu	t7,t5,-1
9d006e04:	2de107fe 	sltiu	at,t7,2046
9d006e08:	1020006f 	beqz	at,9d006fc8 <CspecB>
9d006e0c:	00000000 	nop

9d006e10 <Clab2>:
9d006e10:	25affc02 	addiu	t7,t5,-1022
9d006e14:	014f5021 	addu	t2,t2,t7
9d006e18:	012c0019 	multu	t1,t4
9d006e1c:	00003812 	mflo	a3
9d006e20:	00007010 	mfhi	t6
9d006e24:	010b0019 	multu	t0,t3
9d006e28:	00002012 	mflo	a0
9d006e2c:	00003010 	mfhi	a2
9d006e30:	012b0019 	multu	t1,t3
9d006e34:	00005812 	mflo	t3
9d006e38:	00006810 	mfhi	t5
9d006e3c:	00cb3021 	addu	a2,a2,t3
9d006e40:	00cb782b 	sltu	t7,a2,t3
9d006e44:	00ed3821 	addu	a3,a3,t5
9d006e48:	00ef3821 	addu	a3,a3,t7
9d006e4c:	10ed0002 	beq	a3,t5,9d006e58 <L20>
9d006e50:	00000000 	nop
9d006e54:	00ed782b 	sltu	t7,a3,t5

9d006e58 <L20>:
9d006e58:	01cf7021 	addu	t6,t6,t7
9d006e5c:	010c0019 	multu	t0,t4
9d006e60:	00004012 	mflo	t0
9d006e64:	00004810 	mfhi	t1
9d006e68:	00c83021 	addu	a2,a2,t0
9d006e6c:	00c8782b 	sltu	t7,a2,t0
9d006e70:	00e93821 	addu	a3,a3,t1
9d006e74:	00ef3821 	addu	a3,a3,t7
9d006e78:	10e90002 	beq	a3,t1,9d006e84 <L21>
9d006e7c:	00000000 	nop
9d006e80:	00e9782b 	sltu	t7,a3,t1

9d006e84 <L21>:
9d006e84:	01cf7021 	addu	t6,t6,t7
9d006e88:	00867825 	or	t7,a0,a2
9d006e8c:	11e00002 	beqz	t7,9d006e98 <i13>
9d006e90:	00000000 	nop
9d006e94:	34e70001 	ori	a3,a3,0x1

9d006e98 <i13>:
9d006e98:	000e4825 	or	t1,zero,t6
9d006e9c:	05200006 	bltz	t1,9d006eb8 <i14>
9d006ea0:	00074025 	or	t0,zero,a3
9d006ea4:	0100782a 	slt	t7,t0,zero
9d006ea8:	01084021 	addu	t0,t0,t0
9d006eac:	01294821 	addu	t1,t1,t1
9d006eb0:	012f4821 	addu	t1,t1,t7
9d006eb4:	254affff 	addiu	t2,t2,-1

9d006eb8 <i14>:
9d006eb8:	254fffff 	addiu	t7,t2,-1
9d006ebc:	2de107fe 	sltiu	at,t7,2046
9d006ec0:	10200068 	beqz	at,9d007064 <Coveund>
9d006ec4:	00000000 	nop
9d006ec8:	25080400 	addiu	t0,t0,1024
9d006ecc:	2d0f0400 	sltiu	t7,t0,1024
9d006ed0:	012f4821 	addu	t1,t1,t7
9d006ed4:	012f782b 	sltu	t7,t1,t7
9d006ed8:	014f5021 	addu	t2,t2,t7

9d006edc <Clab8>:
9d006edc:	00087ac2 	srl	t7,t0,0xb
9d006ee0:	31ef0001 	andi	t7,t7,0x1
9d006ee4:	010f4023 	subu	t0,t0,t7
9d006ee8:	000822c2 	srl	a0,t0,0xb
9d006eec:	00097d40 	sll	t7,t1,0x15
9d006ef0:	008f2025 	or	a0,a0,t7
9d006ef4:	00097840 	sll	t7,t1,0x1
9d006ef8:	000f7b02 	srl	t7,t7,0xc
9d006efc:	00af2825 	or	a1,a1,t7
9d006f00:	000a7d00 	sll	t7,t2,0x14
9d006f04:	00af2825 	or	a1,a1,t7

9d006f08 <Cret>:
9d006f08:	00041025 	or	v0,zero,a0
9d006f0c:	00051825 	or	v1,zero,a1

9d006f10 <C999>:
9d006f10:	03e00008 	jr	ra
9d006f14:	00000000 	nop

9d006f18 <CspecA>:
9d006f18:	0100782a 	slt	t7,t0,zero
9d006f1c:	01084021 	addu	t0,t0,t0
9d006f20:	01294821 	addu	t1,t1,t1
9d006f24:	1540001c 	bnez	t2,9d006f98 <i15>
9d006f28:	012f4821 	addu	t1,t1,t7
9d006f2c:	01287825 	or	t7,t1,t0
9d006f30:	11e00014 	beqz	t7,9d006f84 <i16>
9d006f34:	00000000 	nop
9d006f38:	15200008 	bnez	t1,9d006f5c <L22>
9d006f3c:	00000000 	nop
9d006f40:	15000003 	bnez	t0,9d006f50 <L23>
9d006f44:	00000000 	nop
9d006f48:	1000ffad 	b	9d006e00 <Clab1>
9d006f4c:	240a0000 	li	t2,0

9d006f50 <L23>:
9d006f50:	01004825 	move	t1,t0
9d006f54:	24080000 	li	t0,0
9d006f58:	254affe0 	addiu	t2,t2,-32

9d006f5c <L22>:
9d006f5c:	712e7020 	clz	t6,t1
9d006f60:	11c0ffa7 	beqz	t6,9d006e00 <Clab1>
9d006f64:	00000000 	nop
9d006f68:	014e5023 	subu	t2,t2,t6
9d006f6c:	000e3822 	neg	a3,t6
9d006f70:	00e83806 	srlv	a3,t0,a3
9d006f74:	01c84004 	sllv	t0,t0,t6
9d006f78:	01c94804 	sllv	t1,t1,t6
9d006f7c:	1000ffa0 	b	9d006e00 <Clab1>
9d006f80:	01274825 	or	t1,t1,a3

9d006f84 <i16>:
9d006f84:	240107ff 	li	at,2047
9d006f88:	11a10033 	beq	t5,at,9d007058 <Cnan>
9d006f8c:	00000000 	nop
9d006f90:	1000ffdd 	b	9d006f08 <Cret>
9d006f94:	00000000 	nop

9d006f98 <i15>:
9d006f98:	01287825 	or	t7,t1,t0
9d006f9c:	15e0002e 	bnez	t7,9d007058 <Cnan>
9d006fa0:	00000000 	nop
9d006fa4:	15a00005 	bnez	t5,9d006fbc <i17>
9d006fa8:	00000000 	nop
9d006fac:	000c7840 	sll	t7,t4,0x1
9d006fb0:	01eb7825 	or	t7,t7,t3
9d006fb4:	11e00028 	beqz	t7,9d007058 <Cnan>
9d006fb8:	00000000 	nop

9d006fbc <i17>:
9d006fbc:	240107ff 	li	at,2047
9d006fc0:	15a10021 	bne	t5,at,9d007048 <Cinf>
9d006fc4:	00000000 	nop

9d006fc8 <CspecB>:
9d006fc8:	0160782a 	slt	t7,t3,zero
9d006fcc:	016b5821 	addu	t3,t3,t3
9d006fd0:	018c6021 	addu	t4,t4,t4
9d006fd4:	15a00019 	bnez	t5,9d00703c <i18>
9d006fd8:	018f6021 	addu	t4,t4,t7
9d006fdc:	018b7825 	or	t7,t4,t3
9d006fe0:	11e00014 	beqz	t7,9d007034 <i19>
9d006fe4:	00000000 	nop
9d006fe8:	15800008 	bnez	t4,9d00700c <L25>
9d006fec:	00000000 	nop
9d006ff0:	15600003 	bnez	t3,9d007000 <L26>
9d006ff4:	00000000 	nop
9d006ff8:	1000ff85 	b	9d006e10 <Clab2>
9d006ffc:	240d0000 	li	t5,0

9d007000 <L26>:
9d007000:	01606025 	move	t4,t3
9d007004:	240b0000 	li	t3,0
9d007008:	25adffe0 	addiu	t5,t5,-32

9d00700c <L25>:
9d00700c:	71863020 	clz	a2,t4
9d007010:	10c0ff7f 	beqz	a2,9d006e10 <Clab2>
9d007014:	00000000 	nop
9d007018:	01a66823 	subu	t5,t5,a2
9d00701c:	00067022 	neg	t6,a2
9d007020:	01cb7006 	srlv	t6,t3,t6
9d007024:	00cb5804 	sllv	t3,t3,a2
9d007028:	00cc6004 	sllv	t4,t4,a2
9d00702c:	1000ff78 	b	9d006e10 <Clab2>
9d007030:	018e6025 	or	t4,t4,t6

9d007034 <i19>:
9d007034:	1000ffb4 	b	9d006f08 <Cret>
9d007038:	24040000 	li	a0,0

9d00703c <i18>:
9d00703c:	018b7825 	or	t7,t4,t3
9d007040:	15e00005 	bnez	t7,9d007058 <Cnan>
9d007044:	00000000 	nop

9d007048 <Cinf>:
9d007048:	3c017ff0 	lui	at,0x7ff0
9d00704c:	00a12825 	or	a1,a1,at
9d007050:	1000ffad 	b	9d006f08 <Cret>
9d007054:	24040000 	li	a0,0

9d007058 <Cnan>:
9d007058:	3c05fff8 	lui	a1,0xfff8
9d00705c:	1000ffaa 	b	9d006f08 <Cret>
9d007060:	24040000 	li	a0,0

9d007064 <Coveund>:
9d007064:	1d40fff8 	bgtz	t2,9d007048 <Cinf>
9d007068:	00000000 	nop
9d00706c:	240e0001 	li	t6,1
9d007070:	01ca7023 	subu	t6,t6,t2

9d007074 <L28>:
9d007074:	2dc10020 	sltiu	at,t6,32
9d007078:	14200007 	bnez	at,9d007098 <L29>
9d00707c:	00000000 	nop
9d007080:	21ceffe0 	addi	t6,t6,-32
9d007084:	0008302b 	sltu	a2,zero,t0
9d007088:	1009000d 	beq	zero,t1,9d0070c0 <L30>
9d00708c:	01264025 	or	t0,t1,a2
9d007090:	1000fff8 	b	9d007074 <L28>
9d007094:	34090000 	li	t1,0x0

9d007098 <L29>:
9d007098:	11c00009 	beqz	t6,9d0070c0 <L30>
9d00709c:	00000000 	nop
9d0070a0:	000e3822 	neg	a3,t6
9d0070a4:	00e83004 	sllv	a2,t0,a3
9d0070a8:	00e93804 	sllv	a3,t1,a3
9d0070ac:	01c84006 	srlv	t0,t0,t6
9d0070b0:	01c94806 	srlv	t1,t1,t6
9d0070b4:	10c00002 	beqz	a2,9d0070c0 <L30>
9d0070b8:	00e84025 	or	t0,a3,t0
9d0070bc:	35080002 	ori	t0,t0,0x2

9d0070c0 <L30>:
9d0070c0:	25080400 	addiu	t0,t0,1024
9d0070c4:	2d0f0400 	sltiu	t7,t0,1024
9d0070c8:	012f4821 	addu	t1,t1,t7
9d0070cc:	1000ff83 	b	9d006edc <Clab8>
9d0070d0:	000957c2 	srl	t2,t1,0x1f
9d0070d4:	00000000 	nop

Disassembly of section .text.fpsubadd:

9d0070d8 <__subsf3>:
9d0070d8:	3c018000 00a12826                       ...<&(..

9d0070e0 <__addsf3>:
9d0070e0:	00044dc2 312900ff 00055dc2 316b00ff     .M....)1.]....k1
9d0070f0:	3c078000 00044200 01074025 00055200     ...<.B..%@...R..
9d007100:	01475025 252dffff 2da100fe 10200061     %PG...-%...-a. .
9d007110:	00000000                                ....

9d007114 <Blab1>:
9d007114:	256dffff 	addiu	t5,t3,-1
9d007118:	2da100fe 	sltiu	at,t5,254
9d00711c:	10200077 	beqz	at,9d0072fc <BspecB>
9d007120:	00000000 	nop

9d007124 <Blab2>:
9d007124:	012b6023 	subu	t4,t1,t3
9d007128:	0580000d 	bltz	t4,9d007160 <i1>
9d00712c:	00000000 	nop
9d007130:	29810020 	slti	at,t4,32
9d007134:	14200003 	bnez	at,9d007144 <i2>
9d007138:	00000000 	nop
9d00713c:	10000015 	b	9d007194 <e1>
9d007140:	240a0002 	li	t2,2

9d007144 <i2>:
9d007144:	000a3025 	or	a2,zero,t2
9d007148:	018a5006 	srlv	t2,t2,t4
9d00714c:	018a6804 	sllv	t5,t2,t4
9d007150:	11a60010 	beq	t5,a2,9d007194 <e1>
9d007154:	00000000 	nop
9d007158:	1000000e 	b	9d007194 <e1>
9d00715c:	354a0002 	ori	t2,t2,0x2

9d007160 <i1>:
9d007160:	000b4825 	or	t1,zero,t3
9d007164:	000c6023 	negu	t4,t4
9d007168:	29810020 	slti	at,t4,32
9d00716c:	14200003 	bnez	at,9d00717c <i4>
9d007170:	00000000 	nop
9d007174:	10000007 	b	9d007194 <e1>
9d007178:	24080002 	li	t0,2

9d00717c <i4>:
9d00717c:	00083025 	or	a2,zero,t0
9d007180:	01884006 	srlv	t0,t0,t4
9d007184:	01886804 	sllv	t5,t0,t4
9d007188:	11a60002 	beq	t5,a2,9d007194 <e1>
9d00718c:	00000000 	nop
9d007190:	35080002 	ori	t0,t0,0x2

9d007194 <e1>:
9d007194:	00876024 	and	t4,a0,a3
9d007198:	01856826 	xor	t5,t4,a1
9d00719c:	05a00010 	bltz	t5,9d0071e0 <Bsub1>
9d0071a0:	00000000 	nop
9d0071a4:	010a4021 	addu	t0,t0,t2
9d0071a8:	010a682b 	sltu	t5,t0,t2
9d0071ac:	11a00017 	beqz	t5,9d00720c <Bres>
9d0071b0:	00000000 	nop
9d0071b4:	310d0001 	andi	t5,t0,0x1
9d0071b8:	11a00002 	beqz	t5,9d0071c4 <i7>
9d0071bc:	00000000 	nop
9d0071c0:	35080002 	ori	t0,t0,0x2

9d0071c4 <i7>:
9d0071c4:	00084042 	srl	t0,t0,0x1
9d0071c8:	25290001 	addiu	t1,t1,1
9d0071cc:	240100ff 	li	at,255
9d0071d0:	1521000e 	bne	t1,at,9d00720c <Bres>
9d0071d4:	00000000 	nop
9d0071d8:	1000000c 	b	9d00720c <Bres>
9d0071dc:	24080000 	li	t0,0

9d0071e0 <Bsub1>:
9d0071e0:	010a682b 	sltu	t5,t0,t2
9d0071e4:	11a00004 	beqz	t5,9d0071f8 <i9>
9d0071e8:	010a4023 	subu	t0,t0,t2
9d0071ec:	00084023 	negu	t0,t0
9d0071f0:	10000003 	b	9d007200 <e9>
9d0071f4:	01876026 	xor	t4,t4,a3

9d0071f8 <i9>:
9d0071f8:	11000050 	beqz	t0,9d00733c <Bzer>
9d0071fc:	00000000 	nop

9d007200 <e9>:
9d007200:	71063020 	clz	a2,t0
9d007204:	01264823 	subu	t1,t1,a2
9d007208:	00c84004 	sllv	t0,t0,a2

9d00720c <Bres>:
9d00720c:	1920000e 	blez	t1,9d007248 <Bund>
9d007210:	00000000 	nop

9d007214 <Blab12>:
9d007214:	25080080 	addiu	t0,t0,128
9d007218:	2d0d0080 	sltiu	t5,t0,128
9d00721c:	012d4821 	addu	t1,t1,t5
9d007220:	00086a02 	srl	t5,t0,0x8
9d007224:	31ad0001 	andi	t5,t5,0x1
9d007228:	010d4023 	subu	t0,t0,t5
9d00722c:	00084040 	sll	t0,t0,0x1
9d007230:	00084242 	srl	t0,t0,0x9
9d007234:	00096dc0 	sll	t5,t1,0x17
9d007238:	010d4025 	or	t0,t0,t5
9d00723c:	010c1025 	or	v0,t0,t4

9d007240 <B999>:
9d007240:	03e00008 	jr	ra
9d007244:	00000000 	nop

9d007248 <Bund>:
9d007248:	24060001 	li	a2,1
9d00724c:	00c93023 	subu	a2,a2,t1
9d007250:	2cc10020 	sltiu	at,a2,32
9d007254:	10200039 	beqz	at,9d00733c <Bzer>
9d007258:	00000000 	nop
9d00725c:	3c018000 	lui	at,0x8000
9d007260:	01014025 	or	t0,t0,at
9d007264:	240d0020 	li	t5,32
9d007268:	01a66823 	subu	t5,t5,a2
9d00726c:	01a84804 	sllv	t1,t0,t5
9d007270:	11200002 	beqz	t1,9d00727c <i10>
9d007274:	00c84006 	srlv	t0,t0,a2
9d007278:	35080001 	ori	t0,t0,0x1

9d00727c <i10>:
9d00727c:	24090000 	li	t1,0
9d007280:	250d0080 	addiu	t5,t0,128
9d007284:	05a1ffe3 	bgez	t5,9d007214 <Blab12>
9d007288:	00000000 	nop
9d00728c:	1000ffe1 	b	9d007214 <Blab12>
9d007290:	24090001 	li	t1,1

9d007294 <BspecA>:
9d007294:	1520000e 	bnez	t1,9d0072d0 <i12>
9d007298:	00000000 	nop
9d00729c:	01084021 	addu	t0,t0,t0
9d0072a0:	11000005 	beqz	t0,9d0072b8 <i13>
9d0072a4:	00000000 	nop
9d0072a8:	710c6020 	clz	t4,t0
9d0072ac:	012c4823 	subu	t1,t1,t4
9d0072b0:	1000ff98 	b	9d007114 <Blab1>
9d0072b4:	01884004 	sllv	t0,t0,t4

9d0072b8 <i13>:
9d0072b8:	240100ff 	li	at,255
9d0072bc:	1161000f 	beq	t3,at,9d0072fc <BspecB>
9d0072c0:	00000000 	nop
9d0072c4:	3c018000 	lui	at,0x8000
9d0072c8:	14a10018 	bne	a1,at,9d00732c <BretB>
9d0072cc:	00000000 	nop

9d0072d0 <i12>:
9d0072d0:	01086821 	addu	t5,t0,t0
9d0072d4:	15a0001b 	bnez	t5,9d007344 <Bnan>
9d0072d8:	00000000 	nop
9d0072dc:	240100ff 	li	at,255
9d0072e0:	15610014 	bne	t3,at,9d007334 <BretA>
9d0072e4:	00000000 	nop
9d0072e8:	00856826 	xor	t5,a0,a1
9d0072ec:	05a00015 	bltz	t5,9d007344 <Bnan>
9d0072f0:	00000000 	nop
9d0072f4:	1000000d 	b	9d00732c <BretB>
9d0072f8:	00000000 	nop

9d0072fc <BspecB>:
9d0072fc:	15600008 	bnez	t3,9d007320 <i15>
9d007300:	00000000 	nop
9d007304:	014a5021 	addu	t2,t2,t2
9d007308:	1140000a 	beqz	t2,9d007334 <BretA>
9d00730c:	00000000 	nop
9d007310:	714c6020 	clz	t4,t2
9d007314:	016c5823 	subu	t3,t3,t4
9d007318:	1000ff82 	b	9d007124 <Blab2>
9d00731c:	018a5004 	sllv	t2,t2,t4

9d007320 <i15>:
9d007320:	014a6821 	addu	t5,t2,t2
9d007324:	15a00007 	bnez	t5,9d007344 <Bnan>
9d007328:	00000000 	nop

9d00732c <BretB>:
9d00732c:	1000ffc4 	b	9d007240 <B999>
9d007330:	00051025 	or	v0,zero,a1

9d007334 <BretA>:
9d007334:	1000ffc2 	b	9d007240 <B999>
9d007338:	00041025 	or	v0,zero,a0

9d00733c <Bzer>:
9d00733c:	1000ffc0 	b	9d007240 <B999>
9d007340:	24020000 	li	v0,0

9d007344 <Bnan>:
9d007344:	1000ffbe 	b	9d007240 <B999>
9d007348:	3c02ffc0 	lui	v0,0xffc0
9d00734c:	00000000 	nop

Disassembly of section .text.fp32div:

9d007350 <__divsf3>:
9d007350:	3c0b8000 000445c2 310800ff 000555c2     ...<.E.....1.U..
9d007360:	314a00ff 00043a00 00eb3825 00054a00     ..J1.:..%8...J..
9d007370:	012b4825 00857026 016e5824 250effff     %H+.&p..$Xn....%
9d007380:	2dc100fe 1020003f 00000000              ...-?. .....

9d00738c <Dlab1>:
9d00738c:	254effff 	addiu	t6,t2,-1
9d007390:	2dc100fe 	sltiu	at,t6,254
9d007394:	10200053 	beqz	at,9d0074e4 <DspecB>
9d007398:	00000000 	nop

9d00739c <Dlab2>:
9d00739c:	00e9082b 	sltu	at,a3,t1
9d0073a0:	14200003 	bnez	at,9d0073b0 <i27>
9d0073a4:	00000000 	nop
9d0073a8:	00073842 	srl	a3,a3,0x1
9d0073ac:	25080001 	addiu	t0,t0,1

9d0073b0 <i27>:
9d0073b0:	00096382 	srl	t4,t1,0xe
9d0073b4:	018001f4 	teq	t4,zero,0x7
9d0073b8:	00ec001b 	divu	zero,a3,t4
9d0073bc:	00002012 	mflo	a0
9d0073c0:	00003010 	mfhi	a2
9d0073c4:	312d3fff 	andi	t5,t1,0x3fff
9d0073c8:	01a40019 	multu	t5,a0
9d0073cc:	00002812 	mflo	a1
9d0073d0:	00063380 	sll	a2,a2,0xe
9d0073d4:	00c5702b 	sltu	t6,a2,a1
9d0073d8:	11c00004 	beqz	t6,9d0073ec <i28>
9d0073dc:	00c53023 	subu	a2,a2,a1
9d0073e0:	2484ffff 	addiu	a0,a0,-1
9d0073e4:	00c93021 	addu	a2,a2,t1
9d0073e8:	00c9702b 	sltu	t6,a2,t1

9d0073ec <i28>:
9d0073ec:	018001f4 	teq	t4,zero,0x7
9d0073f0:	00cc001b 	divu	zero,a2,t4
9d0073f4:	00003812 	mflo	a3
9d0073f8:	00003010 	mfhi	a2
9d0073fc:	01a70019 	multu	t5,a3
9d007400:	00002812 	mflo	a1
9d007404:	00063380 	sll	a2,a2,0xe
9d007408:	00c5702b 	sltu	t6,a2,a1
9d00740c:	11c00004 	beqz	t6,9d007420 <i29>
9d007410:	00c53023 	subu	a2,a2,a1
9d007414:	24e7ffff 	addiu	a3,a3,-1
9d007418:	00c93021 	addu	a2,a2,t1
9d00741c:	00c9702b 	sltu	t6,a2,t1

9d007420 <i29>:
9d007420:	00047380 	sll	t6,a0,0xe
9d007424:	00ee3821 	addu	a3,a3,t6
9d007428:	10c00002 	beqz	a2,9d007434 <i30>
9d00742c:	00073900 	sll	a3,a3,0x4
9d007430:	34e70001 	ori	a3,a3,0x1

9d007434 <i30>:
9d007434:	240e007e 	li	t6,126
9d007438:	01ca7023 	subu	t6,t6,t2
9d00743c:	010e4021 	addu	t0,t0,t6
9d007440:	250effff 	addiu	t6,t0,-1
9d007444:	2dc100fe 	sltiu	at,t6,254
9d007448:	10200034 	beqz	at,9d00751c <Doveund>
9d00744c:	00000000 	nop

9d007450 <Dlab8>:
9d007450:	24e70080 	addiu	a3,a3,128
9d007454:	2cee0080 	sltiu	t6,a3,128
9d007458:	010e4021 	addu	t0,t0,t6
9d00745c:	00077202 	srl	t6,a3,0x8
9d007460:	31ce0001 	andi	t6,t6,0x1
9d007464:	00ee3823 	subu	a3,a3,t6
9d007468:	00073840 	sll	a3,a3,0x1
9d00746c:	00073a42 	srl	a3,a3,0x9
9d007470:	000875c0 	sll	t6,t0,0x17
9d007474:	00ee3825 	or	a3,a3,t6
9d007478:	00eb1025 	or	v0,a3,t3

9d00747c <D999>:
9d00747c:	03e00008 	jr	ra
9d007480:	00000000 	nop

9d007484 <DspecA>:
9d007484:	15000008 	bnez	t0,9d0074a8 <i31>
9d007488:	00000000 	nop
9d00748c:	00e73821 	addu	a3,a3,a3
9d007490:	10e00005 	beqz	a3,9d0074a8 <i31>
9d007494:	00000000 	nop
9d007498:	70ec6020 	clz	t4,a3
9d00749c:	010c4023 	subu	t0,t0,t4
9d0074a0:	1000ffba 	b	9d00738c <Dlab1>
9d0074a4:	01873804 	sllv	a3,a3,t4

9d0074a8 <i31>:
9d0074a8:	15480004 	bne	t2,t0,9d0074bc <i33>
9d0074ac:	00000000 	nop
9d0074b0:	01297021 	addu	t6,t1,t1
9d0074b4:	11c0002f 	beqz	t6,9d007574 <Dnan>
9d0074b8:	00000000 	nop

9d0074bc <i33>:
9d0074bc:	240100ff 	li	at,255
9d0074c0:	11410008 	beq	t2,at,9d0074e4 <DspecB>
9d0074c4:	00000000 	nop
9d0074c8:	11000012 	beqz	t0,9d007514 <Dzer>
9d0074cc:	00000000 	nop
9d0074d0:	00e77021 	addu	t6,a3,a3
9d0074d4:	15c00027 	bnez	t6,9d007574 <Dnan>
9d0074d8:	00000000 	nop
9d0074dc:	10000022 	b	9d007568 <Dinf>
9d0074e0:	00000000 	nop

9d0074e4 <DspecB>:
9d0074e4:	15400008 	bnez	t2,9d007508 <i34>
9d0074e8:	00000000 	nop
9d0074ec:	01294821 	addu	t1,t1,t1
9d0074f0:	1120001d 	beqz	t1,9d007568 <Dinf>
9d0074f4:	00000000 	nop
9d0074f8:	712c6020 	clz	t4,t1
9d0074fc:	014c5023 	subu	t2,t2,t4
9d007500:	1000ffa6 	b	9d00739c <Dlab2>
9d007504:	01894804 	sllv	t1,t1,t4

9d007508 <i34>:
9d007508:	01297021 	addu	t6,t1,t1
9d00750c:	15c00019 	bnez	t6,9d007574 <Dnan>
9d007510:	00000000 	nop

9d007514 <Dzer>:
9d007514:	1000ffd9 	b	9d00747c <D999>
9d007518:	000b1025 	or	v0,zero,t3

9d00751c <Doveund>:
9d00751c:	1d000012 	bgtz	t0,9d007568 <Dinf>
9d007520:	00000000 	nop
9d007524:	240c0001 	li	t4,1
9d007528:	01886023 	subu	t4,t4,t0
9d00752c:	2d810020 	sltiu	at,t4,32
9d007530:	1020fff8 	beqz	at,9d007514 <Dzer>
9d007534:	00000000 	nop
9d007538:	240e0020 	li	t6,32
9d00753c:	01cc7023 	subu	t6,t6,t4
9d007540:	01c74004 	sllv	t0,a3,t6
9d007544:	11000002 	beqz	t0,9d007550 <i37>
9d007548:	01873806 	srlv	a3,a3,t4
9d00754c:	34e70002 	ori	a3,a3,0x2

9d007550 <i37>:
9d007550:	24080000 	li	t0,0
9d007554:	24ee0080 	addiu	t6,a3,128
9d007558:	05c1ffbd 	bgez	t6,9d007450 <Dlab8>
9d00755c:	00000000 	nop
9d007560:	1000ffbb 	b	9d007450 <Dlab8>
9d007564:	24080001 	li	t0,1

9d007568 <Dinf>:
9d007568:	3c017f80 	lui	at,0x7f80
9d00756c:	1000ffc3 	b	9d00747c <D999>
9d007570:	01611025 	or	v0,t3,at

9d007574 <Dnan>:
9d007574:	1000ffc1 	b	9d00747c <D999>
9d007578:	3c02ffc0 	lui	v0,0xffc0
9d00757c:	00000000 	nop

Disassembly of section .text.scale:

9d007580 <scale>:
9d007580:	27bdffd8 	addiu	sp,sp,-40
9d007584:	afbf0024 	sw	ra,36(sp)
9d007588:	afb30020 	sw	s3,32(sp)
9d00758c:	afb2001c 	sw	s2,28(sp)
9d007590:	afb10018 	sw	s1,24(sp)
9d007594:	afb00014 	sw	s0,20(sp)
9d007598:	04800045 	bltz	a0,9d0076b0 <scale+0x130>
9d00759c:	00808021 	move	s0,a0
9d0075a0:	2882006e 	slti	v0,a0,110
9d0075a4:	1040000f 	beqz	v0,9d0075e4 <scale+0x64>
9d0075a8:	2882000b 	slti	v0,a0,11
9d0075ac:	1040006f 	beqz	v0,9d00776c <scale+0x1ec>
9d0075b0:	3c026666 	lui	v0,0x6666
9d0075b4:	00048080 	sll	s0,a0,0x2
9d0075b8:	3c029d01 	lui	v0,0x9d01
9d0075bc:	2442990c 	addiu	v0,v0,-26356
9d0075c0:	02028021 	addu	s0,s0,v0
9d0075c4:	8e020000 	lw	v0,0(s0)
9d0075c8:	8fbf0024 	lw	ra,36(sp)
9d0075cc:	8fb30020 	lw	s3,32(sp)
9d0075d0:	8fb2001c 	lw	s2,28(sp)
9d0075d4:	8fb10018 	lw	s1,24(sp)
9d0075d8:	8fb00014 	lw	s0,20(sp)
9d0075dc:	03e00008 	jr	ra
9d0075e0:	27bd0028 	addiu	sp,sp,40
9d0075e4:	3c0351eb 	lui	v1,0x51eb
9d0075e8:	3463851f 	ori	v1,v1,0x851f
9d0075ec:	00830018 	mult	a0,v1
9d0075f0:	00001810 	mfhi	v1
9d0075f4:	000497c3 	sra	s2,a0,0x1f
9d0075f8:	3c136666 	lui	s3,0x6666
9d0075fc:	26736667 	addiu	s3,s3,26215
9d007600:	3c119d01 	lui	s1,0x9d01
9d007604:	2631990c 	addiu	s1,s1,-26356
9d007608:	8e24004c 	lw	a0,76(s1)
9d00760c:	00031943 	sra	v1,v1,0x5
9d007610:	00721823 	subu	v1,v1,s2
9d007614:	00031080 	sll	v0,v1,0x2
9d007618:	00031900 	sll	v1,v1,0x4
9d00761c:	00431021 	addu	v0,v0,v1
9d007620:	00021880 	sll	v1,v0,0x2
9d007624:	00431021 	addu	v0,v0,v1
9d007628:	02021023 	subu	v0,s0,v0
9d00762c:	7c021420 	seb	v0,v0
9d007630:	00530018 	mult	v0,s3
9d007634:	00001810 	mfhi	v1
9d007638:	000217c3 	sra	v0,v0,0x1f
9d00763c:	00031883 	sra	v1,v1,0x2
9d007640:	00621023 	subu	v0,v1,v0
9d007644:	7c021420 	seb	v0,v0
9d007648:	24420009 	addiu	v0,v0,9
9d00764c:	00021080 	sll	v0,v0,0x2
9d007650:	00511021 	addu	v0,v0,s1
9d007654:	0f401edd 	jal	9d007b74 <.LFE4>
9d007658:	8c450000 	lw	a1,0(v0)
9d00765c:	02130018 	mult	s0,s3
9d007660:	00009810 	mfhi	s3
9d007664:	00402021 	move	a0,v0
9d007668:	00139883 	sra	s3,s3,0x2
9d00766c:	02729023 	subu	s2,s3,s2
9d007670:	00121040 	sll	v0,s2,0x1
9d007674:	001290c0 	sll	s2,s2,0x3
9d007678:	00529021 	addu	s2,v0,s2
9d00767c:	02128023 	subu	s0,s0,s2
9d007680:	7c108420 	seb	s0,s0
9d007684:	00108080 	sll	s0,s0,0x2
9d007688:	02118821 	addu	s1,s0,s1
9d00768c:	0f401edd 	jal	9d007b74 <.LFE4>
9d007690:	8e250000 	lw	a1,0(s1)
9d007694:	8fbf0024 	lw	ra,36(sp)
9d007698:	8fb30020 	lw	s3,32(sp)
9d00769c:	8fb2001c 	lw	s2,28(sp)
9d0076a0:	8fb10018 	lw	s1,24(sp)
9d0076a4:	8fb00014 	lw	s0,20(sp)
9d0076a8:	03e00008 	jr	ra
9d0076ac:	27bd0028 	addiu	sp,sp,40
9d0076b0:	00048023 	negu	s0,a0
9d0076b4:	7c108420 	seb	s0,s0
9d0076b8:	2a02006e 	slti	v0,s0,110
9d0076bc:	10400021 	beqz	v0,9d007744 <scale+0x1c4>
9d0076c0:	2a02000b 	slti	v0,s0,11
9d0076c4:	54400030 	bnezl	v0,9d007788 <scale+0x208>
9d0076c8:	00108080 	sll	s0,s0,0x2
9d0076cc:	3c026666 	lui	v0,0x6666
9d0076d0:	24426667 	addiu	v0,v0,26215
9d0076d4:	02020018 	mult	s0,v0
9d0076d8:	00001010 	mfhi	v0
9d0076dc:	001027c3 	sra	a0,s0,0x1f
9d0076e0:	3c039d01 	lui	v1,0x9d01
9d0076e4:	24639940 	addiu	v1,v1,-26304
9d0076e8:	00021083 	sra	v0,v0,0x2
9d0076ec:	00441023 	subu	v0,v0,a0
9d0076f0:	00022840 	sll	a1,v0,0x1
9d0076f4:	000220c0 	sll	a0,v0,0x3
9d0076f8:	00a42021 	addu	a0,a1,a0
9d0076fc:	7c021420 	seb	v0,v0
9d007700:	02048023 	subu	s0,s0,a0
9d007704:	24420009 	addiu	v0,v0,9
9d007708:	7c108420 	seb	s0,s0
9d00770c:	00021080 	sll	v0,v0,0x2
9d007710:	00108080 	sll	s0,s0,0x2
9d007714:	00431021 	addu	v0,v0,v1
9d007718:	02031821 	addu	v1,s0,v1
9d00771c:	8c440000 	lw	a0,0(v0)
9d007720:	0f401edd 	jal	9d007b74 <.LFE4>
9d007724:	8c650000 	lw	a1,0(v1)
9d007728:	8fbf0024 	lw	ra,36(sp)
9d00772c:	8fb30020 	lw	s3,32(sp)
9d007730:	8fb2001c 	lw	s2,28(sp)
9d007734:	8fb10018 	lw	s1,24(sp)
9d007738:	8fb00014 	lw	s0,20(sp)
9d00773c:	03e00008 	jr	ra
9d007740:	27bd0028 	addiu	sp,sp,40
9d007744:	3c0351eb 	lui	v1,0x51eb
9d007748:	3463851f 	ori	v1,v1,0x851f
9d00774c:	02030018 	mult	s0,v1
9d007750:	00001810 	mfhi	v1
9d007754:	001097c3 	sra	s2,s0,0x1f
9d007758:	3c136666 	lui	s3,0x6666
9d00775c:	26736667 	addiu	s3,s3,26215
9d007760:	3c119d01 	lui	s1,0x9d01
9d007764:	0b401d82 	j	9d007608 <scale+0x88>
9d007768:	26319940 	addiu	s1,s1,-26304
9d00776c:	24426667 	addiu	v0,v0,26215
9d007770:	00820018 	mult	a0,v0
9d007774:	00001010 	mfhi	v0
9d007778:	000427c3 	sra	a0,a0,0x1f
9d00777c:	3c039d01 	lui	v1,0x9d01
9d007780:	0b401dba 	j	9d0076e8 <scale+0x168>
9d007784:	2463990c 	addiu	v1,v1,-26356
9d007788:	3c029d01 	lui	v0,0x9d01
9d00778c:	24429940 	addiu	v0,v0,-26304
9d007790:	02028021 	addu	s0,s0,v0
9d007794:	0b401d72 	j	9d0075c8 <scale+0x48>
9d007798:	8e020000 	lw	v0,0(s0)

Disassembly of section .text.__floatdisf:

9d00779c <__floatdisf>:
9d00779c:	00851825 	or	v1,a0,a1
9d0077a0:	10600045 	beqz	v1,9d0078b8 <__floatdisf+0x11c>
9d0077a4:	00001021 	move	v0,zero
9d0077a8:	24020001 	li	v0,1
9d0077ac:	10820044 	beq	a0,v0,9d0078c0 <__floatdisf+0x124>
9d0077b0:	00053fc2 	srl	a3,a1,0x1f
9d0077b4:	2402ffff 	li	v0,-1
9d0077b8:	10820062 	beq	a0,v0,9d007944 <__floatdisf+0x1a8>
9d0077bc:	2402000a 	li	v0,10
9d0077c0:	10820064 	beq	a0,v0,9d007954 <__floatdisf+0x1b8>
9d0077c4:	2402fff6 	li	v0,-10
9d0077c8:	10820057 	beq	a0,v0,9d007928 <__floatdisf+0x18c>
9d0077cc:	2402ffff 	li	v0,-1
9d0077d0:	10e00008 	beqz	a3,9d0077f4 <__floatdisf+0x58>
9d0077d4:	00051940 	sll	v1,a1,0x5
9d0077d8:	1080003f 	beqz	a0,9d0078d8 <__floatdisf+0x13c>
9d0077dc:	3c028000 	lui	v0,0x8000
9d0077e0:	00042023 	negu	a0,a0
9d0077e4:	0004102b 	sltu	v0,zero,a0
9d0077e8:	00052823 	negu	a1,a1
9d0077ec:	00a22823 	subu	a1,a1,v0
9d0077f0:	00051940 	sll	v1,a1,0x5
9d0077f4:	000416c2 	srl	v0,a0,0x1b
9d0077f8:	00621025 	or	v0,v1,v0
9d0077fc:	00051ec2 	srl	v1,a1,0x1b
9d007800:	00431025 	or	v0,v0,v1
9d007804:	14400038 	bnez	v0,9d0078e8 <__floatdisf+0x14c>
9d007808:	00051980 	sll	v1,a1,0x6
9d00780c:	00041682 	srl	v0,a0,0x1a
9d007810:	00621025 	or	v0,v1,v0
9d007814:	00051e82 	srl	v1,a1,0x1a
9d007818:	00431825 	or	v1,v0,v1
9d00781c:	14600051 	bnez	v1,9d007964 <__floatdisf+0x1c8>
9d007820:	2402001a 	li	v0,26
9d007824:	00041fc2 	srl	v1,a0,0x1f
9d007828:	00052840 	sll	a1,a1,0x1
9d00782c:	00652825 	or	a1,v1,a1
9d007830:	00042040 	sll	a0,a0,0x1
9d007834:	00053180 	sll	a2,a1,0x6
9d007838:	00041e82 	srl	v1,a0,0x1a
9d00783c:	00c31825 	or	v1,a2,v1
9d007840:	00053682 	srl	a2,a1,0x1a
9d007844:	00661825 	or	v1,v1,a2
9d007848:	1060fff6 	beqz	v1,9d007824 <__floatdisf+0x88>
9d00784c:	2442ffff 	addiu	v0,v0,-1
9d007850:	2443007f 	addiu	v1,v0,127
9d007854:	58600049 	blezl	v1,9d00797c <__floatdisf+0x1e0>
9d007858:	2403ff82 	li	v1,-126
9d00785c:	30820007 	andi	v0,a0,0x7
9d007860:	1040000a 	beqz	v0,9d00788c <__floatdisf+0xf0>
9d007864:	286200ff 	slti	v0,v1,255
9d007868:	7c8500c0 	ext	a1,a0,0x3,0x1
9d00786c:	24840003 	addiu	a0,a0,3
9d007870:	00852021 	addu	a0,a0,a1
9d007874:	000416c2 	srl	v0,a0,0x1b
9d007878:	10400004 	beqz	v0,9d00788c <__floatdisf+0xf0>
9d00787c:	286200ff 	slti	v0,v1,255
9d007880:	00042042 	srl	a0,a0,0x1
9d007884:	24630001 	addiu	v1,v1,1
9d007888:	286200ff 	slti	v0,v1,255
9d00788c:	10400037 	beqz	v0,9d00796c <__floatdisf+0x1d0>
9d007890:	000420c2 	srl	a0,a0,0x3
9d007894:	7c8205c0 	ext	v0,a0,0x17,0x1
9d007898:	50400002 	beqzl	v0,9d0078a4 <__floatdisf+0x108>
9d00789c:	00001821 	move	v1,zero
9d0078a0:	7c84b000 	ext	a0,a0,0x0,0x17
9d0078a4:	00071200 	sll	v0,a3,0x8
9d0078a8:	00621025 	or	v0,v1,v0
9d0078ac:	000215c0 	sll	v0,v0,0x17
9d0078b0:	03e00008 	jr	ra
9d0078b4:	00441025 	or	v0,v0,a0
9d0078b8:	03e00008 	jr	ra
9d0078bc:	00000000 	nop
9d0078c0:	54a0ffbd 	bnezl	a1,9d0077b8 <__floatdisf+0x1c>
9d0078c4:	2402ffff 	li	v0,-1
9d0078c8:	00071200 	sll	v0,a3,0x8
9d0078cc:	3442007f 	ori	v0,v0,0x7f
9d0078d0:	03e00008 	jr	ra
9d0078d4:	000215c0 	sll	v0,v0,0x17
9d0078d8:	14a2ffc2 	bne	a1,v0,9d0077e4 <__floatdisf+0x48>
9d0078dc:	00042023 	negu	a0,a0
9d0078e0:	00002021 	move	a0,zero
9d0078e4:	3c058000 	lui	a1,0x8000
9d0078e8:	2402001a 	li	v0,26
9d0078ec:	000537c0 	sll	a2,a1,0x1f
9d0078f0:	00041842 	srl	v1,a0,0x1
9d0078f4:	00c31825 	or	v1,a2,v1
9d0078f8:	30840001 	andi	a0,a0,0x1
9d0078fc:	00052842 	srl	a1,a1,0x1
9d007900:	00832025 	or	a0,a0,v1
9d007904:	00053140 	sll	a2,a1,0x5
9d007908:	00041ec2 	srl	v1,a0,0x1b
9d00790c:	00c31825 	or	v1,a2,v1
9d007910:	000536c2 	srl	a2,a1,0x1b
9d007914:	00661825 	or	v1,v1,a2
9d007918:	1460fff4 	bnez	v1,9d0078ec <__floatdisf+0x150>
9d00791c:	24420001 	addiu	v0,v0,1
9d007920:	0b401e15 	j	9d007854 <__floatdisf+0xb8>
9d007924:	2443007f 	addiu	v1,v0,127
9d007928:	14a2ffa9 	bne	a1,v0,9d0077d0 <__floatdisf+0x34>
9d00792c:	00071200 	sll	v0,a3,0x8
9d007930:	34420082 	ori	v0,v0,0x82
9d007934:	000215c0 	sll	v0,v0,0x17
9d007938:	3c030020 	lui	v1,0x20
9d00793c:	03e00008 	jr	ra
9d007940:	00431025 	or	v0,v0,v1
9d007944:	54a4ff9e 	bnel	a1,a0,9d0077c0 <__floatdisf+0x24>
9d007948:	2402000a 	li	v0,10
9d00794c:	0b401e33 	j	9d0078cc <__floatdisf+0x130>
9d007950:	00071200 	sll	v0,a3,0x8
9d007954:	54a0ff9c 	bnezl	a1,9d0077c8 <__floatdisf+0x2c>
9d007958:	2402fff6 	li	v0,-10
9d00795c:	0b401e4c 	j	9d007930 <__floatdisf+0x194>
9d007960:	00071200 	sll	v0,a3,0x8
9d007964:	0b401e17 	j	9d00785c <__floatdisf+0xc0>
9d007968:	24030099 	li	v1,153
9d00796c:	00071200 	sll	v0,a3,0x8
9d007970:	344200ff 	ori	v0,v0,0xff
9d007974:	03e00008 	jr	ra
9d007978:	000215c0 	sll	v0,v0,0x17
9d00797c:	00621823 	subu	v1,v1,v0
9d007980:	2865001b 	slti	a1,v1,27
9d007984:	50a00008 	beqzl	a1,9d0079a8 <__floatdisf+0x20c>
9d007988:	00002021 	move	a0,zero
9d00798c:	2442009e 	addiu	v0,v0,158
9d007990:	00441004 	sllv	v0,a0,v0
9d007994:	00642006 	srlv	a0,a0,v1
9d007998:	0002102b 	sltu	v0,zero,v0
9d00799c:	00442025 	or	a0,v0,a0
9d0079a0:	0b401e17 	j	9d00785c <__floatdisf+0xc0>
9d0079a4:	24030001 	li	v1,1
9d0079a8:	0b401e29 	j	9d0078a4 <__floatdisf+0x108>
9d0079ac:	00001821 	move	v1,zero

Disassembly of section .text:

9d0079b0 <NU32_Startup>:

// Perform startup routines:
//  Make NU32_LED1 and NU32_LED2 pins outputs (NU32_USER is by default an input)
//  Initialize the serial port - UART3 (no interrupt) 
//  Enable interrupts
void NU32_Startup() {
9d0079b0:	27bdfff8 	addiu	sp,sp,-8
9d0079b4:	afbf0004 	sw	ra,4(sp)
  // disable interrupts
  __builtin_disable_interrupts();
9d0079b8:	41626000 	di	v0
9d0079bc:	000000c0 	ehb
  // see Chapter 2 "CPU for Devices with M4K Core" of the PIC32 reference manual
  // most of the other bits have prescribed values
  // microchip does not provide a _CP0_SET_CONFIG macro, so we directly use
  // the compiler built-in command _mtc0
  // to disable cache, use 0xa4210582 
  __builtin_mtc0(_CP0_CONFIG, _CP0_CONFIG_SELECT, 0xa4210583); 
9d0079c0:	3c02a421 	lui	v0,0xa421
9d0079c4:	24420583 	addiu	v0,v0,1411
9d0079c8:	40828000 	mtc0	v0,c0_config
9d0079cc:	000000c0 	ehb
  
  // set the prefectch cache wait state to 2, as per the
  // electrical characteristics data sheet
  CHECONbits.PFMWS = 0x2;   
9d0079d0:	3c02bf88 	lui	v0,0xbf88
9d0079d4:	8c434000 	lw	v1,16384(v0)
9d0079d8:	24050002 	li	a1,2
9d0079dc:	7ca31004 	ins	v1,a1,0x0,0x3
9d0079e0:	ac434000 	sw	v1,16384(v0)

  //enable prefetch for cacheable and noncacheable memory
  CHECONbits.PREFEN = 0x3; 
9d0079e4:	8c434000 	lw	v1,16384(v0)
9d0079e8:	24040003 	li	a0,3
9d0079ec:	7c832904 	ins	v1,a0,0x4,0x2
9d0079f0:	ac434000 	sw	v1,16384(v0)

  // 0 data RAM access wait states
  BMXCONbits.BMXWSDRM = 0x0;
9d0079f4:	3c02bf88 	lui	v0,0xbf88
9d0079f8:	8c432000 	lw	v1,8192(v0)
9d0079fc:	7c033184 	ins	v1,zero,0x6,0x1
9d007a00:	ac432000 	sw	v1,8192(v0)
  
  // enable multi vector interrupts
  INTCONbits.MVEC = 0x1;
9d007a04:	3c02bf88 	lui	v0,0xbf88
9d007a08:	8c461000 	lw	a2,4096(v0)
9d007a0c:	24030001 	li	v1,1
9d007a10:	7c666304 	ins	a2,v1,0xc,0x1
9d007a14:	ac461000 	sw	a2,4096(v0)

  // disable JTAG to get B10, B11, B12 and B13 back
  DDPCONbits.JTAGEN = 0;
9d007a18:	3c02bf81 	lui	v0,0xbf81
9d007a1c:	9046f200 	lbu	a2,-3584(v0)
9d007a20:	7c0618c4 	ins	a2,zero,0x3,0x1
9d007a24:	a046f200 	sb	a2,-3584(v0)

  TRISFCLR = 0x0003;  // Make F0 and F1 outputs (LED1 and LED2)
9d007a28:	3c02bf88 	lui	v0,0xbf88
9d007a2c:	ac446144 	sw	a0,24900(v0)
  NU32_LED1 = 1;      // LED1 is off
9d007a30:	3c02bf88 	lui	v0,0xbf88
9d007a34:	90446160 	lbu	a0,24928(v0)
9d007a38:	7c640004 	ins	a0,v1,0x0,0x1
9d007a3c:	a0446160 	sb	a0,24928(v0)
  NU32_LED2 = 0;      // LED2 is on
9d007a40:	90446160 	lbu	a0,24928(v0)
9d007a44:	7c040844 	ins	a0,zero,0x1,0x1
9d007a48:	a0446160 	sb	a0,24928(v0)

  // turn on UART3 without an interrupt
  U3MODEbits.BRGH = 0; // set baud to NU32_DESIRED_BAUD
9d007a4c:	3c02bf80 	lui	v0,0xbf80
9d007a50:	94446400 	lhu	a0,25600(v0)
9d007a54:	7c0418c4 	ins	a0,zero,0x3,0x1
9d007a58:	a4446400 	sh	a0,25600(v0)
  U3BRG = ((NU32_SYS_FREQ / NU32_DESIRED_BAUD) / 16) - 1;
9d007a5c:	24060014 	li	a2,20
9d007a60:	3c04bf80 	lui	a0,0xbf80
9d007a64:	ac866440 	sw	a2,25664(a0)

  // 8 bit, no parity bit, and 1 stop bit (8N1 setup)
  U3MODEbits.PDSEL = 0;
9d007a68:	94446400 	lhu	a0,25600(v0)
9d007a6c:	7c041044 	ins	a0,zero,0x1,0x2
9d007a70:	a4446400 	sh	a0,25600(v0)
  U3MODEbits.STSEL = 0;
9d007a74:	94446400 	lhu	a0,25600(v0)
9d007a78:	7c040004 	ins	a0,zero,0x0,0x1
9d007a7c:	a4446400 	sh	a0,25600(v0)

  // configure TX & RX pins as output & input pins
  U3STAbits.UTXEN = 1;
9d007a80:	3c04bf80 	lui	a0,0xbf80
9d007a84:	8c866410 	lw	a2,25616(a0)
9d007a88:	7c665284 	ins	a2,v1,0xa,0x1
9d007a8c:	ac866410 	sw	a2,25616(a0)
  U3STAbits.URXEN = 1;
9d007a90:	8c866410 	lw	a2,25616(a0)
9d007a94:	7c666304 	ins	a2,v1,0xc,0x1
9d007a98:	ac866410 	sw	a2,25616(a0)
  // configure hardware flow control using RTS and CTS
  U3MODEbits.UEN = 2;
9d007a9c:	94446400 	lhu	a0,25600(v0)
9d007aa0:	7ca44a04 	ins	a0,a1,0x8,0x2
9d007aa4:	a4446400 	sh	a0,25600(v0)

  // enable the uart
  U3MODEbits.ON = 1;
9d007aa8:	94446400 	lhu	a0,25600(v0)
9d007aac:	7c647bc4 	ins	a0,v1,0xf,0x1
9d007ab0:	a4446400 	sh	a0,25600(v0)

  __builtin_enable_interrupts();
9d007ab4:	41626020 	ei	v0
}
9d007ab8:	8fbf0004 	lw	ra,4(sp)
9d007abc:	03e00008 	jr	ra
9d007ac0:	27bd0008 	addiu	sp,sp,8

9d007ac4 <NU32_ReadUART3>:
// Read from UART3
// block other functions until you get a '\r' or '\n'
// send the pointer to your char array and the number of elements in the array
void NU32_ReadUART3(char * message, int maxLength) {
  char data = 0;
  int complete = 0, num_bytes = 0;
9d007ac4:	00003021 	move	a2,zero
  // loop until you get a '\r' or '\n'
  while (!complete) {
    if (U3STAbits.URXDA) { // if data is available
9d007ac8:	3c03bf80 	lui	v1,0xbf80
      data = U3RXREG;      // read the data
9d007acc:	3c08bf80 	lui	t0,0xbf80
      if ((data == '\n') || (data == '\r')) {
9d007ad0:	2407000a 	li	a3,10
9d007ad4:	0b401ec5 	j	9d007b14 <NU32_ReadUART3+0x50>
9d007ad8:	2409000d 	li	t1,13
void NU32_ReadUART3(char * message, int maxLength) {
  char data = 0;
  int complete = 0, num_bytes = 0;
  // loop until you get a '\r' or '\n'
  while (!complete) {
    if (U3STAbits.URXDA) { // if data is available
9d007adc:	8c626410 	lw	v0,25616(v1)
9d007ae0:	30420001 	andi	v0,v0,0x1
9d007ae4:	1040fffd 	beqz	v0,9d007adc <NU32_ReadUART3+0x18>
9d007ae8:	00000000 	nop
      data = U3RXREG;      // read the data
9d007aec:	8d026430 	lw	v0,25648(t0)
9d007af0:	7c021420 	seb	v0,v0
      if ((data == '\n') || (data == '\r')) {
9d007af4:	5047000e 	beql	v0,a3,9d007b30 <NU32_ReadUART3+0x6c>
9d007af8:	00862021 	addu	a0,a0,a2
9d007afc:	1049000b 	beq	v0,t1,9d007b2c <NU32_ReadUART3+0x68>
9d007b00:	00865021 	addu	t2,a0,a2
        complete = 1;
      } else {
        message[num_bytes] = data;
9d007b04:	a1420000 	sb	v0,0(t2)
        ++num_bytes;
9d007b08:	24c60001 	addiu	a2,a2,1
        // roll over if the array is too small
        if (num_bytes >= maxLength) {
9d007b0c:	00c5102a 	slt	v0,a2,a1
          num_bytes = 0;
9d007b10:	0002300a 	movz	a2,zero,v0
void NU32_ReadUART3(char * message, int maxLength) {
  char data = 0;
  int complete = 0, num_bytes = 0;
  // loop until you get a '\r' or '\n'
  while (!complete) {
    if (U3STAbits.URXDA) { // if data is available
9d007b14:	8c626410 	lw	v0,25616(v1)
9d007b18:	30420001 	andi	v0,v0,0x1
9d007b1c:	1040ffef 	beqz	v0,9d007adc <NU32_ReadUART3+0x18>
9d007b20:	00000000 	nop
9d007b24:	0b401ebb 	j	9d007aec <NU32_ReadUART3+0x28>
9d007b28:	00000000 	nop
        }
      }
    }
  }
  // end the string
  message[num_bytes] = '\0';
9d007b2c:	00862021 	addu	a0,a0,a2
9d007b30:	03e00008 	jr	ra
9d007b34:	a0800000 	sb	zero,0(a0)

9d007b38 <NU32_WriteUART3>:
}

// Write a character array using UART3
void NU32_WriteUART3(const char * string) {
  while (*string != '\0') {
9d007b38:	80850000 	lb	a1,0(a0)
9d007b3c:	10a0000b 	beqz	a1,9d007b6c <NU32_WriteUART3+0x34>
9d007b40:	3c03bf80 	lui	v1,0xbf80
    while (U3STAbits.UTXBF) {
      ; // wait until tx buffer isn't full
    }
    U3TXREG = *string;
9d007b44:	3c06bf80 	lui	a2,0xbf80
}

// Write a character array using UART3
void NU32_WriteUART3(const char * string) {
  while (*string != '\0') {
    while (U3STAbits.UTXBF) {
9d007b48:	8c626410 	lw	v0,25616(v1)
9d007b4c:	30420200 	andi	v0,v0,0x200
9d007b50:	1440fffd 	bnez	v0,9d007b48 <NU32_WriteUART3+0x10>
9d007b54:	00000000 	nop
      ; // wait until tx buffer isn't full
    }
    U3TXREG = *string;
9d007b58:	acc56420 	sw	a1,25632(a2)
    ++string;
9d007b5c:	24840001 	addiu	a0,a0,1
  message[num_bytes] = '\0';
}

// Write a character array using UART3
void NU32_WriteUART3(const char * string) {
  while (*string != '\0') {
9d007b60:	80850000 	lb	a1,0(a0)
9d007b64:	14a0fff8 	bnez	a1,9d007b48 <NU32_WriteUART3+0x10>
9d007b68:	00000000 	nop
9d007b6c:	03e00008 	jr	ra
9d007b70:	00000000 	nop

Disassembly of section .text.fp32mul:

9d007b74 <__mulsf3>:
9d007b74:	00043dc2 30e700ff 00054dc2 312900ff     .=.....0.M....)1
9d007b84:	3c0a8000 00043200 00ca3025 00054200     ...<.2..%0...B..
9d007b94:	010a4025 00856026 014c5024 24ecffff     %@..&`..$PL....$
9d007ba4:	2d8100fe 10200021 00000000              ...-!. .....

9d007bb0 <Clab1>:
9d007bb0:	252cffff 	addiu	t4,t1,-1
9d007bb4:	2d8100fe 	sltiu	at,t4,254
9d007bb8:	10200036 	beqz	at,9d007c94 <CspecB>
9d007bbc:	00000000 	nop

9d007bc0 <Clab2>:
9d007bc0:	00c80019 	multu	a2,t0
9d007bc4:	00005812 	mflo	t3
9d007bc8:	11600002 	beqz	t3,9d007bd4 <i17>
9d007bcc:	00003010 	mfhi	a2
9d007bd0:	34c60001 	ori	a2,a2,0x1

9d007bd4 <i17>:
9d007bd4:	04c00003 	bltz	a2,9d007be4 <i18>
9d007bd8:	00000000 	nop
9d007bdc:	00063040 	sll	a2,a2,0x1
9d007be0:	24e7ffff 	addiu	a3,a3,-1

9d007be4 <i18>:
9d007be4:	252cff82 	addiu	t4,t1,-126
9d007be8:	00ec3821 	addu	a3,a3,t4
9d007bec:	24ecffff 	addiu	t4,a3,-1
9d007bf0:	2d8100fe 	sltiu	at,t4,254
9d007bf4:	1020003a 	beqz	at,9d007ce0 <Coveund>
9d007bf8:	00000000 	nop

9d007bfc <Clab8>:
9d007bfc:	24c60080 	addiu	a2,a2,128
9d007c00:	2ccc0080 	sltiu	t4,a2,128
9d007c04:	00ec3821 	addu	a3,a3,t4
9d007c08:	00066202 	srl	t4,a2,0x8
9d007c0c:	318c0001 	andi	t4,t4,0x1
9d007c10:	00cc3023 	subu	a2,a2,t4
9d007c14:	00063040 	sll	a2,a2,0x1
9d007c18:	00063242 	srl	a2,a2,0x9
9d007c1c:	000765c0 	sll	t4,a3,0x17
9d007c20:	00cc3025 	or	a2,a2,t4
9d007c24:	00ca1025 	or	v0,a2,t2

9d007c28 <C999>:
9d007c28:	03e00008 	jr	ra
9d007c2c:	00000000 	nop

9d007c30 <CspecA>:
9d007c30:	14e0000d 	bnez	a3,9d007c68 <i19>
9d007c34:	00000000 	nop
9d007c38:	00c63021 	addu	a2,a2,a2
9d007c3c:	10c00005 	beqz	a2,9d007c54 <i20>
9d007c40:	00000000 	nop
9d007c44:	70cb5820 	clz	t3,a2
9d007c48:	00eb3823 	subu	a3,a3,t3
9d007c4c:	1000ffd8 	b	9d007bb0 <Clab1>
9d007c50:	01663004 	sllv	a2,a2,t3

9d007c54 <i20>:
9d007c54:	240100ff 	li	at,255
9d007c58:	1121001f 	beq	t1,at,9d007cd8 <Cnan>
9d007c5c:	00000000 	nop
9d007c60:	10000015 	b	9d007cb8 <Czer>
9d007c64:	00000000 	nop

9d007c68 <i19>:
9d007c68:	00c66021 	addu	t4,a2,a2
9d007c6c:	1580001a 	bnez	t4,9d007cd8 <Cnan>
9d007c70:	00000000 	nop
9d007c74:	15200004 	bnez	t1,9d007c88 <i21>
9d007c78:	00000000 	nop
9d007c7c:	01086021 	addu	t4,t0,t0
9d007c80:	11800015 	beqz	t4,9d007cd8 <Cnan>
9d007c84:	00000000 	nop

9d007c88 <i21>:
9d007c88:	240100ff 	li	at,255
9d007c8c:	1521000f 	bne	t1,at,9d007ccc <Cinf>
9d007c90:	00000000 	nop

9d007c94 <CspecB>:
9d007c94:	1520000a 	bnez	t1,9d007cc0 <i22>
9d007c98:	00000000 	nop
9d007c9c:	01084021 	addu	t0,t0,t0
9d007ca0:	11000005 	beqz	t0,9d007cb8 <Czer>
9d007ca4:	00000000 	nop
9d007ca8:	710b5820 	clz	t3,t0
9d007cac:	012b4823 	subu	t1,t1,t3
9d007cb0:	1000ffc3 	b	9d007bc0 <Clab2>
9d007cb4:	01684004 	sllv	t0,t0,t3

9d007cb8 <Czer>:
9d007cb8:	1000ffdb 	b	9d007c28 <C999>
9d007cbc:	000a1025 	or	v0,zero,t2

9d007cc0 <i22>:
9d007cc0:	01086021 	addu	t4,t0,t0
9d007cc4:	15800004 	bnez	t4,9d007cd8 <Cnan>
9d007cc8:	00000000 	nop

9d007ccc <Cinf>:
9d007ccc:	3c017f80 	lui	at,0x7f80
9d007cd0:	1000ffd5 	b	9d007c28 <C999>
9d007cd4:	01411025 	or	v0,t2,at

9d007cd8 <Cnan>:
9d007cd8:	1000ffd3 	b	9d007c28 <C999>
9d007cdc:	3c02ffc0 	lui	v0,0xffc0

9d007ce0 <Coveund>:
9d007ce0:	1ce0fffa 	bgtz	a3,9d007ccc <Cinf>
9d007ce4:	00000000 	nop
9d007ce8:	240b0001 	li	t3,1
9d007cec:	01675823 	subu	t3,t3,a3
9d007cf0:	2d610020 	sltiu	at,t3,32
9d007cf4:	1020fff0 	beqz	at,9d007cb8 <Czer>
9d007cf8:	00000000 	nop
9d007cfc:	240c0020 	li	t4,32
9d007d00:	018b6023 	subu	t4,t4,t3
9d007d04:	01863804 	sllv	a3,a2,t4
9d007d08:	10e00002 	beqz	a3,9d007d14 <i25>
9d007d0c:	01663006 	srlv	a2,a2,t3
9d007d10:	34c60002 	ori	a2,a2,0x2

9d007d14 <i25>:
9d007d14:	24070000 	li	a3,0
9d007d18:	24cc0080 	addiu	t4,a2,128
9d007d1c:	0581ffb7 	bgez	t4,9d007bfc <Clab8>
9d007d20:	00000000 	nop
9d007d24:	1000ffb5 	b	9d007bfc <Clab8>
9d007d28:	24070001 	li	a3,1
9d007d2c:	00000000 	nop

Disassembly of section .text:

9d007d30 <currentcont_init>:

void currentcont_init(void) {

  //__builtin_disable_interrupts(); // step 2: disable interrupts
                                  // step 3:
  T2CONbits.TCKPS = 2;            // Timer2 prescaler N=4 (1:4)
9d007d30:	3c02bf80 	lui	v0,0xbf80
9d007d34:	94430800 	lhu	v1,2048(v0)
9d007d38:	24040002 	li	a0,2
9d007d3c:	7c833104 	ins	v1,a0,0x4,0x3
9d007d40:	a4430800 	sh	v1,2048(v0)
  PR2 = 3999;                     // period = (PR2+1) * N * 12.5 ns = 200 us, 5 kHz
9d007d44:	24050f9f 	li	a1,3999
9d007d48:	3c03bf80 	lui	v1,0xbf80
9d007d4c:	ac650820 	sw	a1,2080(v1)
  TMR2 = 0;                       // initial TMR2 count is 0             
9d007d50:	3c03bf80 	lui	v1,0xbf80
9d007d54:	ac600810 	sw	zero,2064(v1)
  T2CONbits.ON = 1;               // turn on Timer2
9d007d58:	94440800 	lhu	a0,2048(v0)
9d007d5c:	24030001 	li	v1,1
9d007d60:	7c647bc4 	ins	a0,v1,0xf,0x1
9d007d64:	a4440800 	sh	a0,2048(v0)

  IPC2bits.T2IP = 5;              // step 4: interrupt priority 5
9d007d68:	3c02bf88 	lui	v0,0xbf88
9d007d6c:	8c4410b0 	lw	a0,4272(v0)
9d007d70:	24060005 	li	a2,5
9d007d74:	7cc42084 	ins	a0,a2,0x2,0x3
9d007d78:	ac4410b0 	sw	a0,4272(v0)
  IFS0bits.T2IF = 0;              // step 5: clear the int flag
9d007d7c:	3c02bf88 	lui	v0,0xbf88
9d007d80:	8c441030 	lw	a0,4144(v0)
9d007d84:	7c044204 	ins	a0,zero,0x8,0x1
9d007d88:	ac441030 	sw	a0,4144(v0)
  IEC0bits.T2IE = 1;              // step 6: enable 
9d007d8c:	3c02bf88 	lui	v0,0xbf88
9d007d90:	8c441060 	lw	a0,4192(v0)
9d007d94:	7c644204 	ins	a0,v1,0x8,0x1
9d007d98:	ac441060 	sw	a0,4192(v0)
  //__builtin_enable_interrupts();  // step 7: enable interrupts

  T3CONbits.TCKPS = 0;            // Timer3 prescaler N=1 (1:1)
9d007d9c:	3c04bf80 	lui	a0,0xbf80
9d007da0:	94820a00 	lhu	v0,2560(a0)
9d007da4:	7c023104 	ins	v0,zero,0x4,0x3
9d007da8:	a4820a00 	sh	v0,2560(a0)
  PR3 = 3999;                     // period = (PR3+1) * N * 12.5 ns = 500 us, 20 kHz
9d007dac:	3c02bf80 	lui	v0,0xbf80
9d007db0:	ac450a20 	sw	a1,2592(v0)
  TMR3 = 0;                       // initial TMR3 count is 0
9d007db4:	3c02bf80 	lui	v0,0xbf80
9d007db8:	ac400a10 	sw	zero,2576(v0)

  OC1CONbits.OC32 = 0;
9d007dbc:	3c02bf80 	lui	v0,0xbf80
9d007dc0:	94453000 	lhu	a1,12288(v0)
9d007dc4:	7c052944 	ins	a1,zero,0x5,0x1
9d007dc8:	a4453000 	sh	a1,12288(v0)
  OC1CONbits.OCTSEL = 1;
9d007dcc:	94453000 	lhu	a1,12288(v0)
9d007dd0:	7c6518c4 	ins	a1,v1,0x3,0x1
9d007dd4:	a4453000 	sh	a1,12288(v0)

  OC1CONbits.OCM = 0b110;         // PWM mode without fault pin; other OC1CON bits are defaults
9d007dd8:	94453000 	lhu	a1,12288(v0)
9d007ddc:	24060006 	li	a2,6
9d007de0:	7cc51004 	ins	a1,a2,0x0,0x3
9d007de4:	a4453000 	sh	a1,12288(v0)
  OC1RS = 1000;                   // duty cycle = OC1RS/(PR3+1) = 25%
9d007de8:	240503e8 	li	a1,1000
9d007dec:	3c06bf80 	lui	a2,0xbf80
9d007df0:	acc53020 	sw	a1,12320(a2)
  OC1R = 1000;                    // initialize before turning OC1 on; afterward it is read-only
9d007df4:	3c06bf80 	lui	a2,0xbf80
9d007df8:	acc53010 	sw	a1,12304(a2)

  T3CONbits.ON = 1;               // turn on Timer3
9d007dfc:	94850a00 	lhu	a1,2560(a0)
9d007e00:	7c657bc4 	ins	a1,v1,0xf,0x1
9d007e04:	a4850a00 	sh	a1,2560(a0)
  OC1CONbits.ON = 1;              // turn on OC1
9d007e08:	94443000 	lhu	a0,12288(v0)
9d007e0c:	7c647bc4 	ins	a0,v1,0xf,0x1
9d007e10:	a4443000 	sh	a0,12288(v0)

  TRISDbits.TRISD8 = 0;           // Set pin D8 to digital output
9d007e14:	3c02bf88 	lui	v0,0xbf88
9d007e18:	944360c0 	lhu	v1,24768(v0)
9d007e1c:	7c034204 	ins	v1,zero,0x8,0x1
9d007e20:	a44360c0 	sh	v1,24768(v0)
  LATDbits.LATD8 = 0;             // Set D8 low
9d007e24:	3c02bf88 	lui	v0,0xbf88
9d007e28:	944360e0 	lhu	v1,24800(v0)
9d007e2c:	7c034204 	ins	v1,zero,0x8,0x1
9d007e30:	a44360e0 	sh	v1,24800(v0)
9d007e34:	03e00008 	jr	ra
9d007e38:	00000000 	nop

9d007e3c <set_Igains>:

}

void set_Igains(float p, float i) {
9d007e3c:	27bdfff8 	addiu	sp,sp,-8
9d007e40:	afbf0004 	sw	ra,4(sp)
  __builtin_disable_interrupts();
9d007e44:	41626000 	di	v0
9d007e48:	000000c0 	ehb
  Kp = p;
9d007e4c:	af848014 	sw	a0,-32748(gp)
  Ki = i;
9d007e50:	af858018 	sw	a1,-32744(gp)
  eint = 0;
9d007e54:	00001021 	move	v0,zero
9d007e58:	af82801c 	sw	v0,-32740(gp)
  __builtin_enable_interrupts();
9d007e5c:	41626020 	ei	v0
}
9d007e60:	8fbf0004 	lw	ra,4(sp)
9d007e64:	03e00008 	jr	ra
9d007e68:	27bd0008 	addiu	sp,sp,8

9d007e6c <get_Ikp>:

float get_Ikp(void) {
  return Kp;
9d007e6c:	8f828014 	lw	v0,-32748(gp)
}
9d007e70:	03e00008 	jr	ra
9d007e74:	00000000 	nop

9d007e78 <get_Iki>:

float get_Iki(void) {
  return Ki;
9d007e78:	8f828018 	lw	v0,-32744(gp)
}
9d007e7c:	03e00008 	jr	ra
9d007e80:	00000000 	nop

9d007e84 <get_Ieint>:

float get_Ieint(void) {
  return eint;
9d007e84:	8f82801c 	lw	v0,-32740(gp)
}
9d007e88:	03e00008 	jr	ra
9d007e8c:	00000000 	nop

9d007e90 <set_Ieint>:

void set_Ieint(float e) {
9d007e90:	27bdfff8 	addiu	sp,sp,-8
9d007e94:	afbf0004 	sw	ra,4(sp)
  __builtin_disable_interrupts();
9d007e98:	41626000 	di	v0
9d007e9c:	000000c0 	ehb
  eint = e;
9d007ea0:	af84801c 	sw	a0,-32740(gp)
  __builtin_enable_interrupts();
9d007ea4:	41626020 	ei	v0
}
9d007ea8:	8fbf0004 	lw	ra,4(sp)
9d007eac:	03e00008 	jr	ra
9d007eb0:	27bd0008 	addiu	sp,sp,8

9d007eb4 <set_Iref>:

void set_Iref(float I) {
9d007eb4:	27bdfff8 	addiu	sp,sp,-8
9d007eb8:	afbf0004 	sw	ra,4(sp)
  __builtin_disable_interrupts();
9d007ebc:	41626000 	di	v0
9d007ec0:	000000c0 	ehb
  Iref = I;
9d007ec4:	af848020 	sw	a0,-32736(gp)
  __builtin_enable_interrupts();
9d007ec8:	41626020 	ei	v0
}
9d007ecc:	8fbf0004 	lw	ra,4(sp)
9d007ed0:	03e00008 	jr	ra
9d007ed4:	27bd0008 	addiu	sp,sp,8

9d007ed8 <get_Iref>:

float get_Iref(void) {
  return Iref;
9d007ed8:	8f828020 	lw	v0,-32736(gp)
}
9d007edc:	03e00008 	jr	ra
9d007ee0:	00000000 	nop

Disassembly of section .text.__ldexp:

9d007ee4 <__ldexp>:
9d007ee4:	27bdffe0 	addiu	sp,sp,-32
9d007ee8:	afbf001c 	sw	ra,28(sp)
9d007eec:	afb20018 	sw	s2,24(sp)
9d007ef0:	afb10014 	sw	s1,20(sp)
9d007ef4:	afb00010 	sw	s0,16(sp)
9d007ef8:	7ca75500 	ext	a3,a1,0x14,0xb
9d007efc:	24e2ffff 	addiu	v0,a3,-1
9d007f00:	7ca89800 	ext	t0,a1,0x0,0x14
9d007f04:	2c4907fe 	sltiu	t1,v0,2046
9d007f08:	00c08821 	move	s1,a2
9d007f0c:	000587c2 	srl	s0,a1,0x1f
9d007f10:	00801021 	move	v0,a0
9d007f14:	11200041 	beqz	t1,9d00801c <__ldexp+0x138>
9d007f18:	01001821 	move	v1,t0
9d007f1c:	24e7fc01 	addiu	a3,a3,-1023
9d007f20:	3c040010 	lui	a0,0x10
9d007f24:	01041825 	or	v1,t0,a0
9d007f28:	00f13821 	addu	a3,a3,s1
9d007f2c:	00022f42 	srl	a1,v0,0x1d
9d007f30:	000318c0 	sll	v1,v1,0x3
9d007f34:	24e403ff 	addiu	a0,a3,1023
9d007f38:	00a31825 	or	v1,a1,v1
9d007f3c:	18800025 	blez	a0,9d007fd4 <__ldexp+0xf0>
9d007f40:	000210c0 	sll	v0,v0,0x3
9d007f44:	30450007 	andi	a1,v0,0x7
9d007f48:	14a00015 	bnez	a1,9d007fa0 <__ldexp+0xbc>
9d007f4c:	7c4500c0 	ext	a1,v0,0x3,0x1
9d007f50:	00033740 	sll	a2,v1,0x1d
9d007f54:	000210c2 	srl	v0,v0,0x3
9d007f58:	288507ff 	slti	a1,a0,2047
9d007f5c:	00c21025 	or	v0,a2,v0
9d007f60:	10a00036 	beqz	a1,9d00803c <__ldexp+0x158>
9d007f64:	000318c2 	srl	v1,v1,0x3
9d007f68:	7c650500 	ext	a1,v1,0x14,0x1
9d007f6c:	50a00002 	beqzl	a1,9d007f78 <__ldexp+0x94>
9d007f70:	00002021 	move	a0,zero
9d007f74:	7c639800 	ext	v1,v1,0x0,0x14
9d007f78:	001082c0 	sll	s0,s0,0xb
9d007f7c:	00902025 	or	a0,a0,s0
9d007f80:	00042500 	sll	a0,a0,0x14
9d007f84:	00831825 	or	v1,a0,v1
9d007f88:	8fbf001c 	lw	ra,28(sp)
9d007f8c:	8fb20018 	lw	s2,24(sp)
9d007f90:	8fb10014 	lw	s1,20(sp)
9d007f94:	8fb00010 	lw	s0,16(sp)
9d007f98:	03e00008 	jr	ra
9d007f9c:	27bd0020 	addiu	sp,sp,32
9d007fa0:	24a50003 	addiu	a1,a1,3
9d007fa4:	00452821 	addu	a1,v0,a1
9d007fa8:	00a2102b 	sltu	v0,a1,v0
9d007fac:	00431821 	addu	v1,v0,v1
9d007fb0:	7c660600 	ext	a2,v1,0x18,0x1
9d007fb4:	10c0ffe6 	beqz	a2,9d007f50 <__ldexp+0x6c>
9d007fb8:	00a01021 	move	v0,a1
9d007fbc:	00032fc0 	sll	a1,v1,0x1f
9d007fc0:	00021042 	srl	v0,v0,0x1
9d007fc4:	00a21025 	or	v0,a1,v0
9d007fc8:	00031842 	srl	v1,v1,0x1
9d007fcc:	0b401fd4 	j	9d007f50 <__ldexp+0x6c>
9d007fd0:	24840001 	addiu	a0,a0,1
9d007fd4:	2406fc02 	li	a2,-1022
9d007fd8:	00c73023 	subu	a2,a2,a3
9d007fdc:	28c40038 	slti	a0,a2,56
9d007fe0:	5080001b 	beqzl	a0,9d008050 <__ldexp+0x16c>
9d007fe4:	00001021 	move	v0,zero
9d007fe8:	00062023 	negu	a0,a2
9d007fec:	30850020 	andi	a1,a0,0x20
9d007ff0:	14a00003 	bnez	a1,9d008000 <__ldexp+0x11c>
9d007ff4:	00828804 	sllv	s1,v0,a0
9d007ff8:	00832004 	sllv	a0,v1,a0
9d007ffc:	00828825 	or	s1,a0,v0
9d008000:	00402021 	move	a0,v0
9d008004:	0f402739 	jal	9d009ce4 <__lshrdi3>
9d008008:	00602821 	move	a1,v1
9d00800c:	0011882b 	sltu	s1,zero,s1
9d008010:	02221025 	or	v0,s1,v0
9d008014:	0b401fd1 	j	9d007f44 <__ldexp+0x60>
9d008018:	24040001 	li	a0,1
9d00801c:	54e00005 	bnezl	a3,9d008034 <__ldexp+0x150>
9d008020:	00801021 	move	v0,a0
9d008024:	01043025 	or	a2,t0,a0
9d008028:	14c0000c 	bnez	a2,9d00805c <__ldexp+0x178>
9d00802c:	00000000 	nop
9d008030:	00801021 	move	v0,a0
9d008034:	0b401fe2 	j	9d007f88 <__ldexp+0xa4>
9d008038:	00a01821 	move	v1,a1
9d00803c:	00101ac0 	sll	v1,s0,0xb
9d008040:	346307ff 	ori	v1,v1,0x7ff
9d008044:	00031d00 	sll	v1,v1,0x14
9d008048:	0b401fe2 	j	9d007f88 <__ldexp+0xa4>
9d00804c:	00001021 	move	v0,zero
9d008050:	00001821 	move	v1,zero
9d008054:	0b401fde 	j	9d007f78 <__ldexp+0x94>
9d008058:	00002021 	move	a0,zero
9d00805c:	15000003 	bnez	t0,9d00806c <__ldexp+0x188>
9d008060:	71129020 	clz	s2,t0
9d008064:	70929020 	clz	s2,a0
9d008068:	26520020 	addiu	s2,s2,32
9d00806c:	2646fff5 	addiu	a2,s2,-11
9d008070:	10c0ffad 	beqz	a2,9d007f28 <__ldexp+0x44>
9d008074:	2407fc02 	li	a3,-1022
9d008078:	0f402749 	jal	9d009d24 <__ashldi3>
9d00807c:	01002821 	move	a1,t0
9d008080:	2407fc0d 	li	a3,-1011
9d008084:	0b401fca 	j	9d007f28 <__ldexp+0x44>
9d008088:	00f23823 	subu	a3,a3,s2

Disassembly of section .text._filbuf:

9d00808c <_filbuf>:
9d00808c:	27bdffd0 	addiu	sp,sp,-48
9d008090:	afbf002c 	sw	ra,44(sp)
9d008094:	afb40028 	sw	s4,40(sp)
9d008098:	afb30024 	sw	s3,36(sp)
9d00809c:	afb20020 	sw	s2,32(sp)
9d0080a0:	afb1001c 	sw	s1,28(sp)
9d0080a4:	afb00018 	sw	s0,24(sp)
9d0080a8:	00808821 	move	s1,a0
9d0080ac:	9482000c 	lhu	v0,12(a0)
9d0080b0:	30420001 	andi	v0,v0,0x1
9d0080b4:	1040004a 	beqz	v0,9d0081e0 <_filbuf+0x154>
9d0080b8:	ac800004 	sw	zero,4(a0)
9d0080bc:	3c14a000 	lui	s4,0xa000
9d0080c0:	828224b4 	lb	v0,9396(s4)
9d0080c4:	50400014 	beqzl	v0,9d008118 <_filbuf+0x8c>
9d0080c8:	8e260010 	lw	a2,16(s1)
9d0080cc:	3c10a000 	lui	s0,0xa000
9d0080d0:	26102410 	addiu	s0,s0,9232
9d0080d4:	3c13a000 	lui	s3,0xa000
9d0080d8:	267324b0 	addiu	s3,s3,9392
9d0080dc:	0b40203b 	j	9d0080ec <_filbuf+0x60>
9d0080e0:	24120102 	li	s2,258
9d0080e4:	5213000b 	beql	s0,s3,9d008114 <_filbuf+0x88>
9d0080e8:	a28024b4 	sb	zero,9396(s4)
9d0080ec:	9602000c 	lhu	v0,12(s0)
9d0080f0:	30420102 	andi	v0,v0,0x102
9d0080f4:	5452fffb 	bnel	v0,s2,9d0080e4 <_filbuf+0x58>
9d0080f8:	26100014 	addiu	s0,s0,20
9d0080fc:	0f402517 	jal	9d00945c <.LFE0>
9d008100:	02002021 	move	a0,s0
9d008104:	26100014 	addiu	s0,s0,20
9d008108:	5613fff9 	bnel	s0,s3,9d0080f0 <_filbuf+0x64>
9d00810c:	9602000c 	lhu	v0,12(s0)
9d008110:	a28024b4 	sb	zero,9396(s4)
9d008114:	8e260010 	lw	a2,16(s1)
9d008118:	10c00016 	beqz	a2,9d008174 <_filbuf+0xe8>
9d00811c:	9624000e 	lhu	a0,14(s1)
9d008120:	0f4020df 	jal	9d00837c <read>
9d008124:	8e250008 	lw	a1,8(s1)
9d008128:	1040002f 	beqz	v0,9d0081e8 <_filbuf+0x15c>
9d00812c:	ae220004 	sw	v0,4(s1)
9d008130:	2403ffff 	li	v1,-1
9d008134:	50430034 	beql	v0,v1,9d008208 <_filbuf+0x17c>
9d008138:	9622000c 	lhu	v0,12(s1)
9d00813c:	8e230008 	lw	v1,8(s1)
9d008140:	2442ffff 	addiu	v0,v0,-1
9d008144:	ae220004 	sw	v0,4(s1)
9d008148:	24620001 	addiu	v0,v1,1
9d00814c:	ae220000 	sw	v0,0(s1)
9d008150:	90620000 	lbu	v0,0(v1)
9d008154:	8fbf002c 	lw	ra,44(sp)
9d008158:	8fb40028 	lw	s4,40(sp)
9d00815c:	8fb30024 	lw	s3,36(sp)
9d008160:	8fb20020 	lw	s2,32(sp)
9d008164:	8fb1001c 	lw	s1,28(sp)
9d008168:	8fb00018 	lw	s0,24(sp)
9d00816c:	03e00008 	jr	ra
9d008170:	27bd0030 	addiu	sp,sp,48
9d008174:	ae200004 	sw	zero,4(s1)
9d008178:	27a50010 	addiu	a1,sp,16
9d00817c:	0f4020df 	jal	9d00837c <read>
9d008180:	24060001 	li	a2,1
9d008184:	24030001 	li	v1,1
9d008188:	1043000c 	beq	v0,v1,9d0081bc <_filbuf+0x130>
9d00818c:	2402ffff 	li	v0,-1
9d008190:	9623000c 	lhu	v1,12(s1)
9d008194:	34630010 	ori	v1,v1,0x10
9d008198:	a623000c 	sh	v1,12(s1)
9d00819c:	8fbf002c 	lw	ra,44(sp)
9d0081a0:	8fb40028 	lw	s4,40(sp)
9d0081a4:	8fb30024 	lw	s3,36(sp)
9d0081a8:	8fb20020 	lw	s2,32(sp)
9d0081ac:	8fb1001c 	lw	s1,28(sp)
9d0081b0:	8fb00018 	lw	s0,24(sp)
9d0081b4:	03e00008 	jr	ra
9d0081b8:	27bd0030 	addiu	sp,sp,48
9d0081bc:	93a20010 	lbu	v0,16(sp)
9d0081c0:	8fbf002c 	lw	ra,44(sp)
9d0081c4:	8fb40028 	lw	s4,40(sp)
9d0081c8:	8fb30024 	lw	s3,36(sp)
9d0081cc:	8fb20020 	lw	s2,32(sp)
9d0081d0:	8fb1001c 	lw	s1,28(sp)
9d0081d4:	8fb00018 	lw	s0,24(sp)
9d0081d8:	03e00008 	jr	ra
9d0081dc:	27bd0030 	addiu	sp,sp,48
9d0081e0:	0b402055 	j	9d008154 <_filbuf+0xc8>
9d0081e4:	2402ffff 	li	v0,-1
9d0081e8:	9622000c 	lhu	v0,12(s1)
9d0081ec:	34420010 	ori	v0,v0,0x10
9d0081f0:	a622000c 	sh	v0,12(s1)
9d0081f4:	8e230008 	lw	v1,8(s1)
9d0081f8:	ae200004 	sw	zero,4(s1)
9d0081fc:	2402ffff 	li	v0,-1
9d008200:	0b402055 	j	9d008154 <_filbuf+0xc8>
9d008204:	ae230000 	sw	v1,0(s1)
9d008208:	34420030 	ori	v0,v0,0x30
9d00820c:	0b40207d 	j	9d0081f4 <_filbuf+0x168>
9d008210:	a622000c 	sh	v0,12(s1)

Disassembly of section .text:

9d008214 <strlen>:
9d008214:	908a0000 	lbu	t2,0(a0)
9d008218:	00801021 	move	v0,a0
9d00821c:	15400003 	bnez	t2,9d00822c <strlen+0x18>
9d008220:	00000000 	nop
9d008224:	03e00008 	jr	ra
9d008228:	24020000 	li	v0,0
9d00822c:	908a0001 	lbu	t2,1(a0)
9d008230:	15400003 	bnez	t2,9d008240 <strlen+0x2c>
9d008234:	00000000 	nop
9d008238:	03e00008 	jr	ra
9d00823c:	24020001 	li	v0,1
9d008240:	908a0002 	lbu	t2,2(a0)
9d008244:	15400003 	bnez	t2,9d008254 <strlen+0x40>
9d008248:	00000000 	nop
9d00824c:	03e00008 	jr	ra
9d008250:	24020002 	li	v0,2
9d008254:	908a0003 	lbu	t2,3(a0)
9d008258:	15400003 	bnez	t2,9d008268 <strlen+0x54>
9d00825c:	00042082 	srl	a0,a0,0x2
9d008260:	03e00008 	jr	ra
9d008264:	24020003 	li	v0,3
9d008268:	24840001 	addiu	a0,a0,1
9d00826c:	00042080 	sll	a0,a0,0x2
9d008270:	8c8a0000 	lw	t2,0(a0)
9d008274:	3c090101 	lui	t1,0x101
9d008278:	35290101 	ori	t1,t1,0x101
9d00827c:	000979c0 	sll	t7,t1,0x7
9d008280:	01494023 	subu	t0,t2,t1
9d008284:	010f4024 	and	t0,t0,t7
9d008288:	11000006 	beqz	t0,9d0082a4 <strlen+0x90>
9d00828c:	010a6024 	and	t4,t0,t2
9d008290:	11880004 	beq	t4,t0,9d0082a4 <strlen+0x90>
9d008294:	00000000 	nop
9d008298:	908a0000 	lbu	t2,0(a0)
9d00829c:	10000022 	b	9d008328 <strlen+0x114>
9d0082a0:	24840000 	addiu	a0,a0,0
9d0082a4:	8c8b0004 	lw	t3,4(a0)
9d0082a8:	01694023 	subu	t0,t3,t1
9d0082ac:	010f4024 	and	t0,t0,t7
9d0082b0:	11000006 	beqz	t0,9d0082cc <strlen+0xb8>
9d0082b4:	010b6024 	and	t4,t0,t3
9d0082b8:	11880004 	beq	t4,t0,9d0082cc <strlen+0xb8>
9d0082bc:	00000000 	nop
9d0082c0:	908a0004 	lbu	t2,4(a0)
9d0082c4:	10000018 	b	9d008328 <strlen+0x114>
9d0082c8:	24840004 	addiu	a0,a0,4
9d0082cc:	8c8a0008 	lw	t2,8(a0)
9d0082d0:	01494023 	subu	t0,t2,t1
9d0082d4:	010f4024 	and	t0,t0,t7
9d0082d8:	11000006 	beqz	t0,9d0082f4 <strlen+0xe0>
9d0082dc:	010a6024 	and	t4,t0,t2
9d0082e0:	11880004 	beq	t4,t0,9d0082f4 <strlen+0xe0>
9d0082e4:	00000000 	nop
9d0082e8:	908a0008 	lbu	t2,8(a0)
9d0082ec:	1000000e 	b	9d008328 <strlen+0x114>
9d0082f0:	24840008 	addiu	a0,a0,8
9d0082f4:	8c8b000c 	lw	t3,12(a0)
9d0082f8:	01694023 	subu	t0,t3,t1
9d0082fc:	010f4024 	and	t0,t0,t7
9d008300:	11000006 	beqz	t0,9d00831c <strlen+0x108>
9d008304:	010b6024 	and	t4,t0,t3
9d008308:	11880004 	beq	t4,t0,9d00831c <strlen+0x108>
9d00830c:	00000000 	nop
9d008310:	908a000c 	lbu	t2,12(a0)
9d008314:	10000004 	b	9d008328 <strlen+0x114>
9d008318:	2484000c 	addiu	a0,a0,12
9d00831c:	8c8a0010 	lw	t2,16(a0)
9d008320:	1000ffd7 	b	9d008280 <strlen+0x6c>
9d008324:	24840010 	addiu	a0,a0,16
9d008328:	15400004 	bnez	t2,9d00833c <strlen+0x128>
9d00832c:	00000000 	nop
9d008330:	24840000 	addiu	a0,a0,0
9d008334:	03e00008 	jr	ra
9d008338:	00821023 	subu	v0,a0,v0
9d00833c:	908a0001 	lbu	t2,1(a0)
9d008340:	15400004 	bnez	t2,9d008354 <strlen+0x140>
9d008344:	00000000 	nop
9d008348:	24840001 	addiu	a0,a0,1
9d00834c:	03e00008 	jr	ra
9d008350:	00821023 	subu	v0,a0,v0
9d008354:	908a0002 	lbu	t2,2(a0)
9d008358:	15400004 	bnez	t2,9d00836c <strlen+0x158>
9d00835c:	00000000 	nop
9d008360:	24840002 	addiu	a0,a0,2
9d008364:	03e00008 	jr	ra
9d008368:	00821023 	subu	v0,a0,v0
9d00836c:	908a0003 	lbu	t2,3(a0)
9d008370:	24840003 	addiu	a0,a0,3
9d008374:	03e00008 	jr	ra
9d008378:	00821023 	subu	v0,a0,v0

Disassembly of section .text.read:

9d00837c <read>:
9d00837c:	27bdffe0 	addiu	sp,sp,-32
9d008380:	afbf001c 	sw	ra,28(sp)
9d008384:	afb20018 	sw	s2,24(sp)
9d008388:	afb10014 	sw	s1,20(sp)
9d00838c:	afb00010 	sw	s0,16(sp)
9d008390:	10a00017 	beqz	a1,9d0083f0 <read+0x74>
9d008394:	00a08021 	move	s0,a1
9d008398:	00c09021 	move	s2,a2
9d00839c:	10c0000e 	beqz	a2,9d0083d8 <read+0x5c>
9d0083a0:	00001021 	move	v0,zero
9d0083a4:	1480000c 	bnez	a0,9d0083d8 <read+0x5c>
9d0083a8:	02401021 	move	v0,s2
9d0083ac:	3c020000 	lui	v0,0x0
9d0083b0:	24420000 	addiu	v0,v0,0
9d0083b4:	10400015 	beqz	v0,9d00840c <read+0x90>
9d0083b8:	00c08821 	move	s1,a2
9d0083bc:	24040001 	li	a0,1
9d0083c0:	0c000000 	jal	90000000 <_bmxdkpba_address+0x8ffe0000>
9d0083c4:	26100001 	addiu	s0,s0,1
9d0083c8:	2631ffff 	addiu	s1,s1,-1
9d0083cc:	1620fffb 	bnez	s1,9d0083bc <read+0x40>
9d0083d0:	a202ffff 	sb	v0,-1(s0)
9d0083d4:	02401021 	move	v0,s2
9d0083d8:	8fbf001c 	lw	ra,28(sp)
9d0083dc:	8fb20018 	lw	s2,24(sp)
9d0083e0:	8fb10014 	lw	s1,20(sp)
9d0083e4:	8fb00010 	lw	s0,16(sp)
9d0083e8:	03e00008 	jr	ra
9d0083ec:	27bd0020 	addiu	sp,sp,32
9d0083f0:	00001021 	move	v0,zero
9d0083f4:	8fbf001c 	lw	ra,28(sp)
9d0083f8:	8fb20018 	lw	s2,24(sp)
9d0083fc:	8fb10014 	lw	s1,20(sp)
9d008400:	8fb00010 	lw	s0,16(sp)
9d008404:	03e00008 	jr	ra
9d008408:	27bd0020 	addiu	sp,sp,32
9d00840c:	3c02a000 	lui	v0,0xa000
9d008410:	8c430000 	lw	v1,0(v0)
9d008414:	24020002 	li	v0,2
9d008418:	10620025 	beq	v1,v0,9d0084b0 <read+0x134>
9d00841c:	3c02bf80 	lui	v0,0xbf80
9d008420:	3c02bf80 	lui	v0,0xbf80
9d008424:	8c426000 	lw	v0,24576(v0)
9d008428:	3c06bf80 	lui	a2,0xbf80
9d00842c:	24c66030 	addiu	a2,a2,24624
9d008430:	3c05bf80 	lui	a1,0xbf80
9d008434:	24a56010 	addiu	a1,a1,24592
9d008438:	30428000 	andi	v0,v0,0x8000
9d00843c:	14400005 	bnez	v0,9d008454 <read+0xd8>
9d008440:	02401021 	move	v0,s2
9d008444:	34038000 	li	v1,0x8000
9d008448:	3c02bf80 	lui	v0,0xbf80
9d00844c:	ac436008 	sw	v1,24584(v0)
9d008450:	02401021 	move	v0,s2
9d008454:	8ca30000 	lw	v1,0(a1)
9d008458:	30630001 	andi	v1,v1,0x1
9d00845c:	14600009 	bnez	v1,9d008484 <read+0x108>
9d008460:	240300a0 	li	v1,160
9d008464:	0b40211d 	j	9d008474 <read+0xf8>
9d008468:	00000000 	nop
9d00846c:	10600005 	beqz	v1,9d008484 <read+0x108>
9d008470:	00000000 	nop
9d008474:	8ca40000 	lw	a0,0(a1)
9d008478:	30840001 	andi	a0,a0,0x1
9d00847c:	1080fffb 	beqz	a0,9d00846c <read+0xf0>
9d008480:	2463ffff 	addiu	v1,v1,-1
9d008484:	8ca30000 	lw	v1,0(a1)
9d008488:	30630001 	andi	v1,v1,0x1
9d00848c:	5460ffd2 	bnezl	v1,9d0083d8 <read+0x5c>
9d008490:	02421023 	subu	v0,s2,v0
9d008494:	8cc30000 	lw	v1,0(a2)
9d008498:	26100001 	addiu	s0,s0,1
9d00849c:	2442ffff 	addiu	v0,v0,-1
9d0084a0:	1440ffec 	bnez	v0,9d008454 <read+0xd8>
9d0084a4:	a203ffff 	sb	v1,-1(s0)
9d0084a8:	0b4020f6 	j	9d0083d8 <read+0x5c>
9d0084ac:	02421023 	subu	v0,s2,v0
9d0084b0:	24426840 	addiu	v0,v0,26688
9d0084b4:	1040ffda 	beqz	v0,9d008420 <read+0xa4>
9d0084b8:	3c02bf80 	lui	v0,0xbf80
9d0084bc:	8c426800 	lw	v0,26624(v0)
9d0084c0:	3c06bf80 	lui	a2,0xbf80
9d0084c4:	24c66830 	addiu	a2,a2,26672
9d0084c8:	3c05bf80 	lui	a1,0xbf80
9d0084cc:	0b40210e 	j	9d008438 <read+0xbc>
9d0084d0:	24a56810 	addiu	a1,a1,26640

Disassembly of section .text.fputc:

9d0084d4 <fputc>:
9d0084d4:	27bdffe0 	addiu	sp,sp,-32
9d0084d8:	afbf001c 	sw	ra,28(sp)
9d0084dc:	afb10018 	sw	s1,24(sp)
9d0084e0:	afb00014 	sw	s0,20(sp)
9d0084e4:	94a2000c 	lhu	v0,12(a1)
9d0084e8:	30430002 	andi	v1,v0,0x2
9d0084ec:	10600048 	beqz	v1,9d008610 <fputc+0x13c>
9d0084f0:	00a08021 	move	s0,a1
9d0084f4:	30430200 	andi	v1,v0,0x200
9d0084f8:	1060001c 	beqz	v1,9d00856c <fputc+0x98>
9d0084fc:	8ca30004 	lw	v1,4(a1)
9d008500:	34450200 	ori	a1,v0,0x200
9d008504:	a605000c 	sh	a1,12(s0)
9d008508:	1060001c 	beqz	v1,9d00857c <fputc+0xa8>
9d00850c:	309100ff 	andi	s1,a0,0xff
9d008510:	2404000a 	li	a0,10
9d008514:	1224001f 	beq	s1,a0,9d008594 <fputc+0xc0>
9d008518:	30420080 	andi	v0,v0,0x80
9d00851c:	8e020010 	lw	v0,16(s0)
9d008520:	10620036 	beq	v1,v0,9d0085fc <fputc+0x128>
9d008524:	24630001 	addiu	v1,v1,1
9d008528:	8e020000 	lw	v0,0(s0)
9d00852c:	24440001 	addiu	a0,v0,1
9d008530:	ae040000 	sw	a0,0(s0)
9d008534:	ae030004 	sw	v1,4(s0)
9d008538:	a0510000 	sb	s1,0(v0)
9d00853c:	24030001 	li	v1,1
9d008540:	3c02a000 	lui	v0,0xa000
9d008544:	a04324b4 	sb	v1,9396(v0)
9d008548:	2402000a 	li	v0,10
9d00854c:	52220018 	beql	s1,v0,9d0085b0 <fputc+0xdc>
9d008550:	9603000c 	lhu	v1,12(s0)
9d008554:	02201021 	move	v0,s1
9d008558:	8fbf001c 	lw	ra,28(sp)
9d00855c:	8fb10018 	lw	s1,24(sp)
9d008560:	8fb00014 	lw	s0,20(sp)
9d008564:	03e00008 	jr	ra
9d008568:	27bd0020 	addiu	sp,sp,32
9d00856c:	14600028 	bnez	v1,9d008610 <fputc+0x13c>
9d008570:	34450200 	ori	a1,v0,0x200
9d008574:	a605000c 	sh	a1,12(s0)
9d008578:	309100ff 	andi	s1,a0,0xff
9d00857c:	8e040008 	lw	a0,8(s0)
9d008580:	ae040000 	sw	a0,0(s0)
9d008584:	2404000a 	li	a0,10
9d008588:	5624ffe5 	bnel	s1,a0,9d008520 <fputc+0x4c>
9d00858c:	8e020010 	lw	v0,16(s0)
9d008590:	30420080 	andi	v0,v0,0x80
9d008594:	5440ffe2 	bnezl	v0,9d008520 <fputc+0x4c>
9d008598:	8e020010 	lw	v0,16(s0)
9d00859c:	2404000d 	li	a0,13
9d0085a0:	0f402135 	jal	9d0084d4 <fputc>
9d0085a4:	02002821 	move	a1,s0
9d0085a8:	0b402147 	j	9d00851c <fputc+0x48>
9d0085ac:	8e030004 	lw	v1,4(s0)
9d0085b0:	30630100 	andi	v1,v1,0x100
9d0085b4:	1060ffe8 	beqz	v1,9d008558 <fputc+0x84>
9d0085b8:	2402000a 	li	v0,10
9d0085bc:	9604000e 	lhu	a0,14(s0)
9d0085c0:	8e050008 	lw	a1,8(s0)
9d0085c4:	0f402566 	jal	9d009598 <write>
9d0085c8:	8e060004 	lw	a2,4(s0)
9d0085cc:	8e030004 	lw	v1,4(s0)
9d0085d0:	50430006 	beql	v0,v1,9d0085ec <fputc+0x118>
9d0085d4:	8e030008 	lw	v1,8(s0)
9d0085d8:	9602000c 	lhu	v0,12(s0)
9d0085dc:	2411ffff 	li	s1,-1
9d0085e0:	34420030 	ori	v0,v0,0x30
9d0085e4:	a602000c 	sh	v0,12(s0)
9d0085e8:	8e030008 	lw	v1,8(s0)
9d0085ec:	ae000004 	sw	zero,4(s0)
9d0085f0:	02201021 	move	v0,s1
9d0085f4:	0b402156 	j	9d008558 <fputc+0x84>
9d0085f8:	ae030000 	sw	v1,0(s0)
9d0085fc:	7c112420 	seb	a0,s1
9d008600:	0f40221d 	jal	9d008874 <.LFE10>
9d008604:	02002821 	move	a1,s0
9d008608:	0b402157 	j	9d00855c <fputc+0x88>
9d00860c:	8fbf001c 	lw	ra,28(sp)
9d008610:	0b402156 	j	9d008558 <fputc+0x84>
9d008614:	2402ffff 	li	v0,-1

Disassembly of section .dinit:

9d008618 <.dinit>:
9d008618:	a0000004 	sb	zero,4(zero)
9d00861c:	00000010 	mfhi	zero
9d008620:	00000000 	nop
9d008624:	a00000e8 	sb	zero,232(zero)
9d008628:	00002328 	0x2328
9d00862c:	00000000 	nop
9d008630:	a0000014 	sb	zero,20(zero)
9d008634:	000000bc 	0xbc
9d008638:	00000000 	nop
9d00863c:	a00000d0 	sb	zero,208(zero)
9d008640:	00000014 	0x14
9d008644:	00000000 	nop
9d008648:	a00000e4 	sb	zero,228(zero)
9d00864c:	00000004 	sllv	zero,zero,zero
9d008650:	00000000 	nop
9d008654:	a00024f8 	sb	zero,9464(zero)
9d008658:	00000004 	sllv	zero,zero,zero
9d00865c:	00000000 	nop
9d008660:	a0002410 	sb	zero,9232(zero)
9d008664:	000000a4 	0xa4
9d008668:	00000001 	movf	zero,zero,$fcc0
9d00866c:	a00024b8 	sb	zero,9400(zero)
9d008670:	00000000 	nop
9d008674:	a00024b8 	sb	zero,9400(zero)
9d008678:	00000009 	jalr	zero,zero
9d00867c:	00000020 	add	zero,zero,zero
9d008680:	a00024d8 	sb	zero,9432(zero)
9d008684:	00000000 	nop
9d008688:	a00024d8 	sb	zero,9432(zero)
9d00868c:	0001020e 	0x1020e
	...
9d0086a0:	00020206 	0x20206
	...
9d00870c:	a0002410 	sb	zero,9232(zero)
9d008710:	a00024b4 	sb	zero,9396(zero)
9d008714:	00000044 	0x44
9d008718:	00000000 	nop
9d00871c:	a0000000 	sb	zero,0(zero)
9d008720:	00000004 	sllv	zero,zero,zero
9d008724:	00000001 	movf	zero,zero,$fcc0
9d008728:	00000002 	srl	zero,zero,0x0
9d00872c:	a00024fc 	sb	zero,9468(zero)
9d008730:	00000004 	sllv	zero,zero,zero
	...
9d00873c:	22222222 	addi	v0,s1,8738
9d008740:	22222222 	addi	v0,s1,8738
9d008744:	22222222 	addi	v0,s1,8738

Disassembly of section .text:

9d008748 <positioncont_init>:

void positioncont_init(void) {

  //__builtin_disable_interrupts(); // step 2: disable interrupts
                                  // step 3:
  T4CONbits.TCKPS = 0b100;            // Timer4 prescaler N=1 (1:1)
9d008748:	3c02bf80 	lui	v0,0xbf80
9d00874c:	94430c00 	lhu	v1,3072(v0)
9d008750:	24040004 	li	a0,4
9d008754:	7c833104 	ins	v1,a0,0x4,0x3
9d008758:	a4430c00 	sh	v1,3072(v0)
  PR4 = 12000;                     // period = (PR2+1) * N * 12.5 ns = 5000 us, 200 Hz
9d00875c:	24042ee0 	li	a0,12000
9d008760:	3c03bf80 	lui	v1,0xbf80
9d008764:	ac640c20 	sw	a0,3104(v1)
  TMR4 = 0;                       // initial TMR4 count is 0
9d008768:	3c03bf80 	lui	v1,0xbf80
9d00876c:	ac600c10 	sw	zero,3088(v1)
  T4CONbits.ON = 1;               // turn on Timer 4
9d008770:	94430c00 	lhu	v1,3072(v0)
9d008774:	24040001 	li	a0,1
9d008778:	7c837bc4 	ins	v1,a0,0xf,0x1
9d00877c:	a4430c00 	sh	v1,3072(v0)

  IPC4bits.T4IP = 6;              // step 4: interrupt priority 5
9d008780:	3c02bf88 	lui	v0,0xbf88
9d008784:	8c4310d0 	lw	v1,4304(v0)
9d008788:	24050006 	li	a1,6
9d00878c:	7ca32084 	ins	v1,a1,0x2,0x3
9d008790:	ac4310d0 	sw	v1,4304(v0)
  IFS0bits.T4IF = 0;              // step 5: clear the int flag
9d008794:	3c02bf88 	lui	v0,0xbf88
9d008798:	8c431030 	lw	v1,4144(v0)
9d00879c:	7c038404 	ins	v1,zero,0x10,0x1
9d0087a0:	ac431030 	sw	v1,4144(v0)
  IEC0bits.T4IE = 1;              // step 6: enable 
9d0087a4:	3c02bf88 	lui	v0,0xbf88
9d0087a8:	8c431060 	lw	v1,4192(v0)
9d0087ac:	7c838404 	ins	v1,a0,0x10,0x1
9d0087b0:	ac431060 	sw	v1,4192(v0)
9d0087b4:	03e00008 	jr	ra
9d0087b8:	00000000 	nop

9d0087bc <set_Pgains>:
  //TRISDbits.TRISD9 = 0;           // Set pin D9 to digital output
  //LATDbits.LATD9 = 0;             // Set D9 low

}

void set_Pgains(float p, float i, float d) {
9d0087bc:	27bdfff8 	addiu	sp,sp,-8
9d0087c0:	afbf0004 	sw	ra,4(sp)
  __builtin_disable_interrupts();
9d0087c4:	41626000 	di	v0
9d0087c8:	000000c0 	ehb
  PKp = p;
9d0087cc:	af8480e0 	sw	a0,-32544(gp)
  PKi = i;
9d0087d0:	af8580e4 	sw	a1,-32540(gp)
  PKd = d;
9d0087d4:	af8680e8 	sw	a2,-32536(gp)
  Peint = 0;
9d0087d8:	00001021 	move	v0,zero
9d0087dc:	af8280ec 	sw	v0,-32532(gp)
  __builtin_enable_interrupts();
9d0087e0:	41626020 	ei	v0
}
9d0087e4:	8fbf0004 	lw	ra,4(sp)
9d0087e8:	03e00008 	jr	ra
9d0087ec:	27bd0008 	addiu	sp,sp,8

9d0087f0 <get_Pkp>:

float get_Pkp(void) {
  return PKp;
9d0087f0:	8f8280e0 	lw	v0,-32544(gp)
}
9d0087f4:	03e00008 	jr	ra
9d0087f8:	00000000 	nop

9d0087fc <get_Pki>:

float get_Pki(void) {
  return PKi;
9d0087fc:	8f8280e4 	lw	v0,-32540(gp)
}
9d008800:	03e00008 	jr	ra
9d008804:	00000000 	nop

9d008808 <get_Pkd>:

float get_Pkd(void) {
  return PKd;
9d008808:	8f8280e8 	lw	v0,-32536(gp)
}
9d00880c:	03e00008 	jr	ra
9d008810:	00000000 	nop

9d008814 <get_Peint>:

float get_Peint(void) {
  return Peint;
9d008814:	8f8280ec 	lw	v0,-32532(gp)
}
9d008818:	03e00008 	jr	ra
9d00881c:	00000000 	nop

9d008820 <set_Peint>:

void set_Peint(float e) {
9d008820:	27bdfff8 	addiu	sp,sp,-8
9d008824:	afbf0004 	sw	ra,4(sp)
  __builtin_disable_interrupts();
9d008828:	41626000 	di	v0
9d00882c:	000000c0 	ehb
  Peint = e;
9d008830:	af8480ec 	sw	a0,-32532(gp)
  __builtin_enable_interrupts();
9d008834:	41626020 	ei	v0
}
9d008838:	8fbf0004 	lw	ra,4(sp)
9d00883c:	03e00008 	jr	ra
9d008840:	27bd0008 	addiu	sp,sp,8

9d008844 <set_angle>:

void set_angle(int a) {
9d008844:	27bdfff8 	addiu	sp,sp,-8
9d008848:	afbf0004 	sw	ra,4(sp)
  __builtin_disable_interrupts();
9d00884c:	41626000 	di	v0
9d008850:	000000c0 	ehb
  angle = a;
9d008854:	af8480f0 	sw	a0,-32528(gp)
  __builtin_enable_interrupts();
9d008858:	41626020 	ei	v0
}
9d00885c:	8fbf0004 	lw	ra,4(sp)
9d008860:	03e00008 	jr	ra
9d008864:	27bd0008 	addiu	sp,sp,8

9d008868 <get_angle>:

int get_angle(void) {
  return angle;
9d008868:	8f8280f0 	lw	v0,-32528(gp)
}
9d00886c:	03e00008 	jr	ra
9d008870:	00000000 	nop

Disassembly of section .text._flsbuf:

9d008874 <_flsbuf>:
9d008874:	27bdffe8 	addiu	sp,sp,-24
9d008878:	afbf0014 	sw	ra,20(sp)
9d00887c:	afb00010 	sw	s0,16(sp)
9d008880:	00a08021 	move	s0,a1
9d008884:	94a2000c 	lhu	v0,12(a1)
9d008888:	30430040 	andi	v1,v0,0x40
9d00888c:	1460001c 	bnez	v1,9d008900 <_flsbuf+0x8c>
9d008890:	a3a40018 	sb	a0,24(sp)
9d008894:	30430002 	andi	v1,v0,0x2
9d008898:	5060003d 	beqzl	v1,9d008990 <_flsbuf+0x11c>
9d00889c:	34420030 	ori	v0,v0,0x30
9d0088a0:	8ca30010 	lw	v1,16(a1)
9d0088a4:	5060001b 	beqzl	v1,9d008914 <_flsbuf+0xa0>
9d0088a8:	94a4000e 	lhu	a0,14(a1)
9d0088ac:	8ca50008 	lw	a1,8(a1)
9d0088b0:	50a0002d 	beqzl	a1,9d008968 <_flsbuf+0xf4>
9d0088b4:	3c05a000 	lui	a1,0xa000
9d0088b8:	8e060004 	lw	a2,4(s0)
9d0088bc:	0f402566 	jal	9d009598 <write>
9d0088c0:	9604000e 	lhu	a0,14(s0)
9d0088c4:	8e020008 	lw	v0,8(s0)
9d0088c8:	83a30018 	lb	v1,24(sp)
9d0088cc:	24440001 	addiu	a0,v0,1
9d0088d0:	2405ffff 	li	a1,-1
9d0088d4:	ae050004 	sw	a1,4(s0)
9d0088d8:	ae040000 	sw	a0,0(s0)
9d0088dc:	a0430000 	sb	v1,0(v0)
9d0088e0:	83a20018 	lb	v0,24(sp)
9d0088e4:	2403000a 	li	v1,10
9d0088e8:	50430013 	beql	v0,v1,9d008938 <_flsbuf+0xc4>
9d0088ec:	9603000c 	lhu	v1,12(s0)
9d0088f0:	8fbf0014 	lw	ra,20(sp)
9d0088f4:	8fb00010 	lw	s0,16(sp)
9d0088f8:	03e00008 	jr	ra
9d0088fc:	27bd0018 	addiu	sp,sp,24
9d008900:	7c041420 	seb	v0,a0
9d008904:	8fbf0014 	lw	ra,20(sp)
9d008908:	8fb00010 	lw	s0,16(sp)
9d00890c:	03e00008 	jr	ra
9d008910:	27bd0018 	addiu	sp,sp,24
9d008914:	27a50018 	addiu	a1,sp,24
9d008918:	0f402566 	jal	9d009598 <write>
9d00891c:	24060001 	li	a2,1
9d008920:	ae000004 	sw	zero,4(s0)
9d008924:	83a20018 	lb	v0,24(sp)
9d008928:	8fbf0014 	lw	ra,20(sp)
9d00892c:	8fb00010 	lw	s0,16(sp)
9d008930:	03e00008 	jr	ra
9d008934:	27bd0018 	addiu	sp,sp,24
9d008938:	30630100 	andi	v1,v1,0x100
9d00893c:	1060ffed 	beqz	v1,9d0088f4 <_flsbuf+0x80>
9d008940:	8fbf0014 	lw	ra,20(sp)
9d008944:	9604000e 	lhu	a0,14(s0)
9d008948:	8e050008 	lw	a1,8(s0)
9d00894c:	0f402566 	jal	9d009598 <write>
9d008950:	8e060004 	lw	a2,4(s0)
9d008954:	8e030008 	lw	v1,8(s0)
9d008958:	83a20018 	lb	v0,24(sp)
9d00895c:	ae000004 	sw	zero,4(s0)
9d008960:	0b40223c 	j	9d0088f0 <_flsbuf+0x7c>
9d008964:	ae030000 	sw	v1,0(s0)
9d008968:	24a524d8 	addiu	a1,a1,9432
9d00896c:	24030020 	li	v1,32
9d008970:	34420008 	ori	v0,v0,0x8
9d008974:	ae050008 	sw	a1,8(s0)
9d008978:	ae050000 	sw	a1,0(s0)
9d00897c:	ae030010 	sw	v1,16(s0)
9d008980:	ae030004 	sw	v1,4(s0)
9d008984:	a602000c 	sh	v0,12(s0)
9d008988:	0b40222f 	j	9d0088bc <_flsbuf+0x48>
9d00898c:	24060020 	li	a2,32
9d008990:	a4a2000c 	sh	v0,12(a1)
9d008994:	aca00004 	sw	zero,4(a1)
9d008998:	0b40223c 	j	9d0088f0 <_flsbuf+0x7c>
9d00899c:	2402ffff 	li	v0,-1

Disassembly of section .text:

9d0089a0 <adc_init>:
#define CORE_TICK_TIME 25    // nanoseconds between core ticks
#define SAMPLE_TIME 10       // 10 core timer ticks = 250 ns
#define DELAY_TICKS 20000000 // delay 1/2 sec, 20 M core ticks, between messages

void adc_init(void) {
  AD1PCFGbits.PCFG0 = 0;                 // AN0 is an adc pin
9d0089a0:	3c02bf81 	lui	v0,0xbf81
9d0089a4:	94439060 	lhu	v1,-28576(v0)
9d0089a8:	7c030004 	ins	v1,zero,0x0,0x1
9d0089ac:	a4439060 	sh	v1,-28576(v0)
  AD1CON3bits.ADCS = 2;                   // ADC clock period is Tad = 2*(ADCS+1)*Tpb =
9d0089b0:	24030002 	li	v1,2
9d0089b4:	3c02bf81 	lui	v0,0xbf81
9d0089b8:	a0439020 	sb	v1,-28640(v0)
                                          //                           2*3*12.5ns = 75ns
  AD1CON1bits.ADON = 1;                   // turn on A/D converter
9d0089bc:	3c02bf81 	lui	v0,0xbf81
9d0089c0:	94439000 	lhu	v1,-28672(v0)
9d0089c4:	24040001 	li	a0,1
9d0089c8:	7c837bc4 	ins	v1,a0,0xf,0x1
9d0089cc:	a4439000 	sh	v1,-28672(v0)
9d0089d0:	03e00008 	jr	ra
9d0089d4:	00000000 	nop

9d0089d8 <adc_counts>:
}

int adc_counts(int pin) { 
9d0089d8:	27bdfff8 	addiu	sp,sp,-8
9d0089dc:	afbf0004 	sw	ra,4(sp)
  unsigned int elapsed = 0, finish_time = 0;
  AD1CHSbits.CH0SA = pin;
9d0089e0:	3c02bf81 	lui	v0,0xbf81
9d0089e4:	8c439040 	lw	v1,-28608(v0)
9d0089e8:	7c839c04 	ins	v1,a0,0x10,0x4
9d0089ec:	ac439040 	sw	v1,-28608(v0)
  AD1CON1bits.SAMP = 1;
9d0089f0:	3c02bf81 	lui	v0,0xbf81
9d0089f4:	94439000 	lhu	v1,-28672(v0)
9d0089f8:	24040001 	li	a0,1
9d0089fc:	7c830844 	ins	v1,a0,0x1,0x1
9d008a00:	a4439000 	sh	v1,-28672(v0)
  elapsed = _CP0_GET_COUNT();
9d008a04:	40034800 	mfc0	v1,c0_count
  finish_time = elapsed + SAMPLE_TIME;
9d008a08:	2463000a 	addiu	v1,v1,10
  while (_CP0_GET_COUNT() < finish_time) { 
9d008a0c:	40024800 	mfc0	v0,c0_count
9d008a10:	0043102b 	sltu	v0,v0,v1
9d008a14:	1440fffd 	bnez	v0,9d008a0c <adc_counts+0x34>
9d008a18:	3c02bf81 	lui	v0,0xbf81
	;                                 
  }
  AD1CON1bits.SAMP = 0;               
9d008a1c:	94439000 	lhu	v1,-28672(v0)
9d008a20:	7c030844 	ins	v1,zero,0x1,0x1
9d008a24:	a4439000 	sh	v1,-28672(v0)
  while (!AD1CON1bits.DONE) {
9d008a28:	00401821 	move	v1,v0
9d008a2c:	8c629000 	lw	v0,-28672(v1)
9d008a30:	30420001 	andi	v0,v0,0x1
9d008a34:	1040fffd 	beqz	v0,9d008a2c <adc_counts+0x54>
9d008a38:	3c02bf81 	lui	v0,0xbf81
	;                                 
  }
  return ADC1BUF0;                    
9d008a3c:	8c429070 	lw	v0,-28560(v0)
}
9d008a40:	8fbf0004 	lw	ra,4(sp)
9d008a44:	03e00008 	jr	ra
9d008a48:	27bd0008 	addiu	sp,sp,8

9d008a4c <adc_sample_convert>:

unsigned int adc_sample_convert(int pin) { // sample & convert the value on the given 
9d008a4c:	27bdfff8 	addiu	sp,sp,-8
9d008a50:	afbf0004 	sw	ra,4(sp)
                                           // adc pin the pin should be configured as an 
                                           // analog input in AD1PCFG
    unsigned int elapsed = 0, finish_time = 0;
    AD1CHSbits.CH0SA = pin;                // connect chosen pin to MUXA for sampling
9d008a54:	3c02bf81 	lui	v0,0xbf81
9d008a58:	8c439040 	lw	v1,-28608(v0)
9d008a5c:	7c839c04 	ins	v1,a0,0x10,0x4
9d008a60:	ac439040 	sw	v1,-28608(v0)
    AD1CON1bits.SAMP = 1;                  // start sampling
9d008a64:	3c02bf81 	lui	v0,0xbf81
9d008a68:	94439000 	lhu	v1,-28672(v0)
9d008a6c:	24040001 	li	a0,1
9d008a70:	7c830844 	ins	v1,a0,0x1,0x1
9d008a74:	a4439000 	sh	v1,-28672(v0)
    elapsed = _CP0_GET_COUNT();
9d008a78:	40034800 	mfc0	v1,c0_count
    finish_time = elapsed + SAMPLE_TIME;
9d008a7c:	2463000a 	addiu	v1,v1,10
    while (_CP0_GET_COUNT() < finish_time) { 
9d008a80:	40024800 	mfc0	v0,c0_count
9d008a84:	0043102b 	sltu	v0,v0,v1
9d008a88:	1440fffd 	bnez	v0,9d008a80 <adc_sample_convert+0x34>
9d008a8c:	3c02bf81 	lui	v0,0xbf81
      ;                                   // sample for more than 250 ns
    }
    AD1CON1bits.SAMP = 0;                 // stop sampling and start converting
9d008a90:	94439000 	lhu	v1,-28672(v0)
9d008a94:	7c030844 	ins	v1,zero,0x1,0x1
9d008a98:	a4439000 	sh	v1,-28672(v0)
    while (!AD1CON1bits.DONE) {
9d008a9c:	00401821 	move	v1,v0
9d008aa0:	8c629000 	lw	v0,-28672(v1)
9d008aa4:	30420001 	andi	v0,v0,0x1
9d008aa8:	1040fffd 	beqz	v0,9d008aa0 <adc_sample_convert+0x54>
9d008aac:	3c02bf81 	lui	v0,0xbf81
      ;                                   // wait for the conversion process to finish
    }
    return ADC1BUF0;                      // read the buffer with the result
9d008ab0:	8c429070 	lw	v0,-28560(v0)
}
9d008ab4:	8fbf0004 	lw	ra,4(sp)
9d008ab8:	03e00008 	jr	ra
9d008abc:	27bd0008 	addiu	sp,sp,8
#include "encoder.h"                   
#include <xc.h>

static int encoder_command(int read) { // send a command to the encoder chip
                                       // 0 = reset count to 32,768, 1 = return the count
  SPI4BUF = read;                      // send the command
9d008ac0:	3c02bf80 	lui	v0,0xbf80
9d008ac4:	ac445c20 	sw	a0,23584(v0)
  while (!SPI4STATbits.SPIRBF) { ; }   // wait for the response
9d008ac8:	3c03bf80 	lui	v1,0xbf80
9d008acc:	8c625c10 	lw	v0,23568(v1)
9d008ad0:	30420001 	andi	v0,v0,0x1
9d008ad4:	1040fffd 	beqz	v0,9d008acc <adc_sample_convert+0x80>
9d008ad8:	3c02bf80 	lui	v0,0xbf80
  SPI4BUF;                             // garbage was transferred, ignore it
9d008adc:	8c435c20 	lw	v1,23584(v0)
  SPI4BUF = 5;                         // write garbage, but the read will have the data
9d008ae0:	24030005 	li	v1,5
9d008ae4:	ac435c20 	sw	v1,23584(v0)
  while (!SPI4STATbits.SPIRBF) { ; }
9d008ae8:	3c03bf80 	lui	v1,0xbf80
9d008aec:	8c625c10 	lw	v0,23568(v1)
9d008af0:	30420001 	andi	v0,v0,0x1
9d008af4:	1040fffd 	beqz	v0,9d008aec <adc_sample_convert+0xa0>
9d008af8:	3c02bf80 	lui	v0,0xbf80
  return SPI4BUF;
9d008afc:	8c425c20 	lw	v0,23584(v0)
}
9d008b00:	03e00008 	jr	ra
9d008b04:	00000000 	nop

9d008b08 <encoder_counts>:

int encoder_counts(void) {
9d008b08:	27bdffe8 	addiu	sp,sp,-24
9d008b0c:	afbf0014 	sw	ra,20(sp)
  return encoder_command(1);
9d008b10:	0f4022b0 	jal	9d008ac0 <adc_sample_convert+0x74>
9d008b14:	24040001 	li	a0,1
}
9d008b18:	8fbf0014 	lw	ra,20(sp)
9d008b1c:	03e00008 	jr	ra
9d008b20:	27bd0018 	addiu	sp,sp,24

9d008b24 <encoder_reset>:

int encoder_reset(void) {
9d008b24:	27bdffe8 	addiu	sp,sp,-24
9d008b28:	afbf0014 	sw	ra,20(sp)
  return encoder_command(0);
9d008b2c:	0f4022b0 	jal	9d008ac0 <adc_sample_convert+0x74>
9d008b30:	00002021 	move	a0,zero
}
9d008b34:	8fbf0014 	lw	ra,20(sp)
9d008b38:	03e00008 	jr	ra
9d008b3c:	27bd0018 	addiu	sp,sp,24

9d008b40 <encoder_init>:

void encoder_init(void) {
  // SPI initialization for reading from the decoder chip
  SPI4CON = 0;              // stop and reset SPI4
9d008b40:	3c02bf80 	lui	v0,0xbf80
9d008b44:	ac405c00 	sw	zero,23552(v0)
  SPI4BUF;                  // read to clear the rx receive buffer
9d008b48:	3c02bf80 	lui	v0,0xbf80
9d008b4c:	8c425c20 	lw	v0,23584(v0)
  SPI4BRG = 0x4;            // bit rate to 8 MHz, SPI4BRG = 80000000/(2*desired)-1
9d008b50:	24030004 	li	v1,4
9d008b54:	3c02bf80 	lui	v0,0xbf80
9d008b58:	ac435c30 	sw	v1,23600(v0)
  SPI4STATbits.SPIROV = 0;  // clear the overflow
9d008b5c:	3c02bf80 	lui	v0,0xbf80
9d008b60:	8c435c10 	lw	v1,23568(v0)
9d008b64:	7c033184 	ins	v1,zero,0x6,0x1
9d008b68:	ac435c10 	sw	v1,23568(v0)
  SPI4CONbits.MSTEN = 1;    // master mode
9d008b6c:	3c02bf80 	lui	v0,0xbf80
9d008b70:	8c445c00 	lw	a0,23552(v0)
9d008b74:	24030001 	li	v1,1
9d008b78:	7c642944 	ins	a0,v1,0x5,0x1
9d008b7c:	ac445c00 	sw	a0,23552(v0)
  SPI4CONbits.MSSEN = 1;    // slave select enable
9d008b80:	8c445c00 	lw	a0,23552(v0)
9d008b84:	7c64e704 	ins	a0,v1,0x1c,0x1
9d008b88:	ac445c00 	sw	a0,23552(v0)
  SPI4CONbits.MODE16 = 1;   // 16 bit mode
9d008b8c:	8c445c00 	lw	a0,23552(v0)
9d008b90:	7c645284 	ins	a0,v1,0xa,0x1
9d008b94:	ac445c00 	sw	a0,23552(v0)
  SPI4CONbits.MODE32 = 0; 
9d008b98:	8c445c00 	lw	a0,23552(v0)
9d008b9c:	7c045ac4 	ins	a0,zero,0xb,0x1
9d008ba0:	ac445c00 	sw	a0,23552(v0)
  SPI4CONbits.SMP = 1;      // sample at the end of the clock
9d008ba4:	8c445c00 	lw	a0,23552(v0)
9d008ba8:	7c644a44 	ins	a0,v1,0x9,0x1
9d008bac:	ac445c00 	sw	a0,23552(v0)
  SPI4CONbits.ON = 1;       // turn SPI on
9d008bb0:	8c445c00 	lw	a0,23552(v0)
9d008bb4:	7c647bc4 	ins	a0,v1,0xf,0x1
9d008bb8:	ac445c00 	sw	a0,23552(v0)
9d008bbc:	03e00008 	jr	ra
9d008bc0:	00000000 	nop

Disassembly of section .text.fgetc:

9d008bc4 <fgetc>:
9d008bc4:	27bdffe0 	addiu	sp,sp,-32
9d008bc8:	afbf001c 	sw	ra,28(sp)
9d008bcc:	afb20018 	sw	s2,24(sp)
9d008bd0:	afb10014 	sw	s1,20(sp)
9d008bd4:	afb00010 	sw	s0,16(sp)
9d008bd8:	00808021 	move	s0,a0
9d008bdc:	9483000c 	lhu	v1,12(a0)
9d008be0:	30640011 	andi	a0,v1,0x11
9d008be4:	24020001 	li	v0,1
9d008be8:	1482001c 	bne	a0,v0,9d008c5c <fgetc+0x98>
9d008bec:	30620200 	andi	v0,v1,0x200
9d008bf0:	14400018 	bnez	v0,9d008c54 <fgetc+0x90>
9d008bf4:	8e020004 	lw	v0,4(s0)
9d008bf8:	3063fdff 	andi	v1,v1,0xfdff
9d008bfc:	a603000c 	sh	v1,12(s0)
9d008c00:	2411001a 	li	s1,26
9d008c04:	2412000d 	li	s2,13
9d008c08:	1840001f 	blez	v0,9d008c88 <fgetc+0xc4>
9d008c0c:	2444ffff 	addiu	a0,v0,-1
9d008c10:	8e020000 	lw	v0,0(s0)
9d008c14:	ae040004 	sw	a0,4(s0)
9d008c18:	24440001 	addiu	a0,v0,1
9d008c1c:	ae040000 	sw	a0,0(s0)
9d008c20:	90420000 	lbu	v0,0(v0)
9d008c24:	30640080 	andi	a0,v1,0x80
9d008c28:	14800005 	bnez	a0,9d008c40 <fgetc+0x7c>
9d008c2c:	8fbf001c 	lw	ra,28(sp)
9d008c30:	5051001c 	beql	v0,s1,9d008ca4 <fgetc+0xe0>
9d008c34:	8e020008 	lw	v0,8(s0)
9d008c38:	50520011 	beql	v0,s2,9d008c80 <fgetc+0xbc>
9d008c3c:	8e020004 	lw	v0,4(s0)
9d008c40:	8fb20018 	lw	s2,24(sp)
9d008c44:	8fb10014 	lw	s1,20(sp)
9d008c48:	8fb00010 	lw	s0,16(sp)
9d008c4c:	03e00008 	jr	ra
9d008c50:	27bd0020 	addiu	sp,sp,32
9d008c54:	5040ffe9 	beqzl	v0,9d008bfc <fgetc+0x38>
9d008c58:	3063fdff 	andi	v1,v1,0xfdff
9d008c5c:	34630010 	ori	v1,v1,0x10
9d008c60:	a603000c 	sh	v1,12(s0)
9d008c64:	2402ffff 	li	v0,-1
9d008c68:	8fbf001c 	lw	ra,28(sp)
9d008c6c:	8fb20018 	lw	s2,24(sp)
9d008c70:	8fb10014 	lw	s1,20(sp)
9d008c74:	8fb00010 	lw	s0,16(sp)
9d008c78:	03e00008 	jr	ra
9d008c7c:	27bd0020 	addiu	sp,sp,32
9d008c80:	1c40ffe3 	bgtz	v0,9d008c10 <fgetc+0x4c>
9d008c84:	2444ffff 	addiu	a0,v0,-1
9d008c88:	30620040 	andi	v0,v1,0x40
9d008c8c:	1440fff3 	bnez	v0,9d008c5c <fgetc+0x98>
9d008c90:	02002021 	move	a0,s0
9d008c94:	0f402023 	jal	9d00808c <.LFE23>
9d008c98:	00000000 	nop
9d008c9c:	0b402309 	j	9d008c24 <fgetc+0x60>
9d008ca0:	9603000c 	lhu	v1,12(s0)
9d008ca4:	5040ffee 	beqzl	v0,9d008c60 <fgetc+0x9c>
9d008ca8:	34630010 	ori	v1,v1,0x10
9d008cac:	8e040004 	lw	a0,4(s0)
9d008cb0:	8e020000 	lw	v0,0(s0)
9d008cb4:	24840001 	addiu	a0,a0,1
9d008cb8:	2442ffff 	addiu	v0,v0,-1
9d008cbc:	ae040004 	sw	a0,4(s0)
9d008cc0:	0b402317 	j	9d008c5c <fgetc+0x98>
9d008cc4:	ae020000 	sw	v0,0(s0)

Disassembly of section .rodata:

9d008cc8 <_ctype>:
9d008cc8:	20202000 20202020 28282020 20282828     .         ((((( 
9d008cd8:	20202020 20202020 20202020 20202020                     
9d008ce8:	10108020 10101010 10101010 10101010      ...............
9d008cf8:	04040410 04040404 10040404 10101010     ................
9d008d08:	41411010 41414141 01010101 01010101     ..AAAAAA........
9d008d18:	01010101 01010101 01010101 10101010     ................
9d008d28:	42421010 42424242 02020202 02020202     ..BBBBBB........
9d008d38:	02020202 02020202 02020202 10101010     ................
9d008d48:	00000020 00000000 00000000 00000000      ...............
	...

Disassembly of section .text.__ldexpf:

9d008dcc <__ldexpf>:
9d008dcc:	7c863dc0 	ext	a2,a0,0x17,0x8
9d008dd0:	24c8ffff 	addiu	t0,a2,-1
9d008dd4:	2d0800fe 	sltiu	t0,t0,254
9d008dd8:	00044fc2 	srl	t1,a0,0x1f
9d008ddc:	1100002b 	beqz	t0,9d008e8c <__ldexpf+0xc0>
9d008de0:	7c87b000 	ext	a3,a0,0x0,0x17
9d008de4:	24c6ff81 	addiu	a2,a2,-127
9d008de8:	3c020080 	lui	v0,0x80
9d008dec:	00e21025 	or	v0,a3,v0
9d008df0:	00c53021 	addu	a2,a2,a1
9d008df4:	24c3007f 	addiu	v1,a2,127
9d008df8:	18600018 	blez	v1,9d008e5c <__ldexpf+0x90>
9d008dfc:	000210c0 	sll	v0,v0,0x3
9d008e00:	30440007 	andi	a0,v0,0x7
9d008e04:	1480000d 	bnez	a0,9d008e3c <__ldexpf+0x70>
9d008e08:	7c4400c0 	ext	a0,v0,0x3,0x1
9d008e0c:	286400ff 	slti	a0,v1,255
9d008e10:	10800024 	beqz	a0,9d008ea4 <__ldexpf+0xd8>
9d008e14:	000210c2 	srl	v0,v0,0x3
9d008e18:	7c4405c0 	ext	a0,v0,0x17,0x1
9d008e1c:	50800002 	beqzl	a0,9d008e28 <__ldexpf+0x5c>
9d008e20:	00001821 	move	v1,zero
9d008e24:	7c42b000 	ext	v0,v0,0x0,0x17
9d008e28:	00094a00 	sll	t1,t1,0x8
9d008e2c:	00691825 	or	v1,v1,t1
9d008e30:	00031dc0 	sll	v1,v1,0x17
9d008e34:	03e00008 	jr	ra
9d008e38:	00621025 	or	v0,v1,v0
9d008e3c:	24420003 	addiu	v0,v0,3
9d008e40:	00441021 	addu	v0,v0,a0
9d008e44:	000226c2 	srl	a0,v0,0x1b
9d008e48:	1080fff1 	beqz	a0,9d008e10 <__ldexpf+0x44>
9d008e4c:	286400ff 	slti	a0,v1,255
9d008e50:	00021042 	srl	v0,v0,0x1
9d008e54:	0b402383 	j	9d008e0c <__ldexpf+0x40>
9d008e58:	24630001 	addiu	v1,v1,1
9d008e5c:	2403ff82 	li	v1,-126
9d008e60:	00661823 	subu	v1,v1,a2
9d008e64:	2864001b 	slti	a0,v1,27
9d008e68:	50800012 	beqzl	a0,9d008eb4 <__ldexpf+0xe8>
9d008e6c:	00001021 	move	v0,zero
9d008e70:	24c4009e 	addiu	a0,a2,158
9d008e74:	00822004 	sllv	a0,v0,a0
9d008e78:	00621006 	srlv	v0,v0,v1
9d008e7c:	0004182b 	sltu	v1,zero,a0
9d008e80:	00621025 	or	v0,v1,v0
9d008e84:	0b402380 	j	9d008e00 <__ldexpf+0x34>
9d008e88:	24030001 	li	v1,1
9d008e8c:	14c00003 	bnez	a2,9d008e9c <__ldexpf+0xd0>
9d008e90:	00000000 	nop
9d008e94:	14e00009 	bnez	a3,9d008ebc <__ldexpf+0xf0>
9d008e98:	70e31820 	clz	v1,a3
9d008e9c:	03e00008 	jr	ra
9d008ea0:	00801021 	move	v0,a0
9d008ea4:	00091200 	sll	v0,t1,0x8
9d008ea8:	344200ff 	ori	v0,v0,0xff
9d008eac:	03e00008 	jr	ra
9d008eb0:	000215c0 	sll	v0,v0,0x17
9d008eb4:	0b40238a 	j	9d008e28 <__ldexpf+0x5c>
9d008eb8:	00001821 	move	v1,zero
9d008ebc:	2462fff8 	addiu	v0,v1,-8
9d008ec0:	00471004 	sllv	v0,a3,v0
9d008ec4:	2406ff8a 	li	a2,-118
9d008ec8:	0b40237c 	j	9d008df0 <__ldexpf+0x24>
9d008ecc:	00c33023 	subu	a2,a2,v1

Disassembly of section .text.dptofp:

9d008ed0 <__truncdfsf2>:
9d008ed0:	00053ac0 00045d42 00eb3825 000432c0     .:..B]..%8...2..
9d008ee0:	3c018000 00e13825 3c018000 00a14824     ...<%8.....<$H..
9d008ef0:	00054040 00084542 2508fc80 250bffff     @@..BE.....%...%
9d008f00:	2d6100fe 10200012 00000000              ..a-.. .....

9d008f0c <Hlab1>:
9d008f0c:	10c00002 	beqz	a2,9d008f18 <i45>
9d008f10:	00000000 	nop
9d008f14:	34e70001 	ori	a3,a3,0x1

9d008f18 <i45>:
9d008f18:	24e70080 	addiu	a3,a3,128
9d008f1c:	2ceb0080 	sltiu	t3,a3,128
9d008f20:	010b4021 	addu	t0,t0,t3
9d008f24:	00075a02 	srl	t3,a3,0x8
9d008f28:	316b0001 	andi	t3,t3,0x1
9d008f2c:	00eb3823 	subu	a3,a3,t3
9d008f30:	00073840 	sll	a3,a3,0x1
9d008f34:	00073a42 	srl	a3,a3,0x9
9d008f38:	00085dc0 	sll	t3,t0,0x17
9d008f3c:	00eb3825 	or	a3,a3,t3
9d008f40:	00e91025 	or	v0,a3,t1

9d008f44 <H999>:
9d008f44:	03e00008 	jr	ra
9d008f48:	00000000 	nop
9d008f4c:	00000000 	nop

9d008f50 <Hspec>:
9d008f50:	2401047f 	li	at,1151
9d008f54:	15010007 	bne	t0,at,9d008f74 <i46>
9d008f58:	00000000 	nop
9d008f5c:	00075840 	sll	t3,a3,0x1
9d008f60:	01665825 	or	t3,t3,a2
9d008f64:	11600003 	beqz	t3,9d008f74 <i46>
9d008f68:	00000000 	nop
9d008f6c:	1000fff5 	b	9d008f44 <H999>
9d008f70:	3c02ffc0 	lui	v0,0xffc0

9d008f74 <i46>:
9d008f74:	290100ff 	slti	at,t0,255
9d008f78:	14200004 	bnez	at,9d008f8c <i48>
9d008f7c:	00000000 	nop
9d008f80:	3c017f80 	lui	at,0x7f80
9d008f84:	1000ffef 	b	9d008f44 <H999>
9d008f88:	01211025 	or	v0,t1,at

9d008f8c <i48>:
9d008f8c:	240a0001 	li	t2,1
9d008f90:	01485023 	subu	t2,t2,t0
9d008f94:	2d410020 	sltiu	at,t2,32
9d008f98:	14200003 	bnez	at,9d008fa8 <i49>
9d008f9c:	00000000 	nop
9d008fa0:	1000ffe8 	b	9d008f44 <H999>
9d008fa4:	00091025 	or	v0,zero,t1

9d008fa8 <i49>:
9d008fa8:	240c0020 	li	t4,32
9d008fac:	018a6023 	subu	t4,t4,t2
9d008fb0:	01875804 	sllv	t3,a3,t4
9d008fb4:	00cb3025 	or	a2,a2,t3
9d008fb8:	01473806 	srlv	a3,a3,t2
9d008fbc:	24080000 	li	t0,0
9d008fc0:	3c018000 	lui	at,0x8000
9d008fc4:	1000ffd1 	b	9d008f0c <Hlab1>
9d008fc8:	00e13825 	or	a3,a3,at
9d008fcc:	00000000 	nop

Disassembly of section .rodata:

9d008fd0 <dpowers>:
9d008fd0:	00000001 00000000 0000000a 00000000     ................
9d008fe0:	00000064 00000000 000003e8 00000000     d...............
9d008ff0:	00002710 00000000 000186a0 00000000     .'..............
9d009000:	000f4240 00000000 00989680 00000000     @B..............
9d009010:	05f5e100 00000000 3b9aca00 00000000     ...........;....
9d009020:	540be400 00000002 4876e800 00000017     ...T......vH....
9d009030:	d4a51000 000000e8 4e72a000 00000918     ..........rN....
9d009040:	107a4000 00005af3 a4c68000 00038d7e     .@z..Z......~...
9d009050:	6fc10000 002386f2 5d8a0000 01634578     ...o..#....]xEc.
9d009060:	a7640000 0de0b6b3 89e80000 8ac72304     ..d..........#..
9d009070:	6c756e28 0000296c 33323130 37363534     (null)..01234567
9d009080:	42413938 46454443 00000000 33323130     89ABCDEF....0123
9d009090:	37363534 62613938 66656463 00000000     456789abcdef....
9d0090a0:	3f800000 41200000 3f000000 4089705f     ...?.. A...?_p.@

Disassembly of section .text.general_exception:

9d0090b0 <_general_exception_context>:
9d0090b0:	27bdffa8 	addiu	sp,sp,-88
9d0090b4:	afa10004 	sw	at,4(sp)
9d0090b8:	afa20008 	sw	v0,8(sp)
9d0090bc:	afa3000c 	sw	v1,12(sp)
9d0090c0:	afa40010 	sw	a0,16(sp)
9d0090c4:	afa50014 	sw	a1,20(sp)
9d0090c8:	afa60018 	sw	a2,24(sp)
9d0090cc:	afa7001c 	sw	a3,28(sp)
9d0090d0:	afa80020 	sw	t0,32(sp)
9d0090d4:	afa90024 	sw	t1,36(sp)
9d0090d8:	afaa0028 	sw	t2,40(sp)
9d0090dc:	afab002c 	sw	t3,44(sp)
9d0090e0:	afac0030 	sw	t4,48(sp)
9d0090e4:	afad0034 	sw	t5,52(sp)
9d0090e8:	afae0038 	sw	t6,56(sp)
9d0090ec:	afaf003c 	sw	t7,60(sp)
9d0090f0:	afb80040 	sw	t8,64(sp)
9d0090f4:	afb90044 	sw	t9,68(sp)
9d0090f8:	afbf0048 	sw	ra,72(sp)
9d0090fc:	00004012 	mflo	t0
9d009100:	afa8004c 	sw	t0,76(sp)
9d009104:	00004010 	mfhi	t0
9d009108:	afa80050 	sw	t0,80(sp)
9d00910c:	3c1a9d01 	lui	k0,0x9d01
9d009110:	275a9bc8 	addiu	k0,k0,-25656
9d009114:	00000000 	nop
9d009118:	40046800 	mfc0	a0,c0_cause
9d00911c:	40056000 	mfc0	a1,c0_status
9d009120:	0340f809 	jalr	k0
9d009124:	00000000 	nop
9d009128:	8fa80050 	lw	t0,80(sp)
9d00912c:	01000011 	mthi	t0
9d009130:	8fa8004c 	lw	t0,76(sp)
9d009134:	01000013 	mtlo	t0
9d009138:	8fa10004 	lw	at,4(sp)
9d00913c:	8fa20008 	lw	v0,8(sp)
9d009140:	8fa3000c 	lw	v1,12(sp)
9d009144:	8fa40010 	lw	a0,16(sp)
9d009148:	8fa50014 	lw	a1,20(sp)
9d00914c:	8fa60018 	lw	a2,24(sp)
9d009150:	8fa7001c 	lw	a3,28(sp)
9d009154:	8fa80020 	lw	t0,32(sp)
9d009158:	8fa90024 	lw	t1,36(sp)
9d00915c:	8faa0028 	lw	t2,40(sp)
9d009160:	8fab002c 	lw	t3,44(sp)
9d009164:	8fac0030 	lw	t4,48(sp)
9d009168:	8fad0034 	lw	t5,52(sp)
9d00916c:	8fae0038 	lw	t6,56(sp)
9d009170:	8faf003c 	lw	t7,60(sp)
9d009174:	8fb80040 	lw	t8,64(sp)
9d009178:	8fb90044 	lw	t9,68(sp)
9d00917c:	8fbf0048 	lw	ra,72(sp)
9d009180:	27bd0058 	addiu	sp,sp,88
9d009184:	000000c0 	ehb
9d009188:	42000018 	eret

Disassembly of section .text._mon_putc:

9d00918c <_mon_putc>:
9d00918c:	27bdffe8 	addiu	sp,sp,-24
9d009190:	afbf0014 	sw	ra,20(sp)
9d009194:	3c02a000 	lui	v0,0xa000
9d009198:	8c420000 	lw	v0,0(v0)
9d00919c:	1440000a 	bnez	v0,9d0091c8 <_mon_putc+0x3c>
9d0091a0:	7c042420 	seb	a0,a0
9d0091a4:	3c020000 	lui	v0,0x0
9d0091a8:	24420000 	addiu	v0,v0,0
9d0091ac:	10400025 	beqz	v0,9d009244 <_mon_putc+0xb8>
9d0091b0:	3c020000 	lui	v0,0x0
9d0091b4:	0c000000 	jal	90000000 <_bmxdkpba_address+0x8ffe0000>
9d0091b8:	00000000 	nop
9d0091bc:	8fbf0014 	lw	ra,20(sp)
9d0091c0:	03e00008 	jr	ra
9d0091c4:	27bd0018 	addiu	sp,sp,24
9d0091c8:	24030001 	li	v1,1
9d0091cc:	10430015 	beq	v0,v1,9d009224 <_mon_putc+0x98>
9d0091d0:	3c05bf80 	lui	a1,0xbf80
9d0091d4:	3c05bf80 	lui	a1,0xbf80
9d0091d8:	24a56820 	addiu	a1,a1,26656
9d0091dc:	3c02bf80 	lui	v0,0xbf80
9d0091e0:	24426818 	addiu	v0,v0,26648
9d0091e4:	3c06bf80 	lui	a2,0xbf80
9d0091e8:	24c66808 	addiu	a2,a2,26632
9d0091ec:	3c03bf80 	lui	v1,0xbf80
9d0091f0:	24636810 	addiu	v1,v1,26640
9d0091f4:	34078000 	li	a3,0x8000
9d0091f8:	acc70000 	sw	a3,0(a2)
9d0091fc:	24060400 	li	a2,1024
9d009200:	ac460000 	sw	a2,0(v0)
9d009204:	8c620000 	lw	v0,0(v1)
9d009208:	30420100 	andi	v0,v0,0x100
9d00920c:	1040fffd 	beqz	v0,9d009204 <_mon_putc+0x78>
9d009210:	00000000 	nop
9d009214:	aca40000 	sw	a0,0(a1)
9d009218:	8fbf0014 	lw	ra,20(sp)
9d00921c:	03e00008 	jr	ra
9d009220:	27bd0018 	addiu	sp,sp,24
9d009224:	24a56020 	addiu	a1,a1,24608
9d009228:	3c02bf80 	lui	v0,0xbf80
9d00922c:	24426018 	addiu	v0,v0,24600
9d009230:	3c06bf80 	lui	a2,0xbf80
9d009234:	24c66008 	addiu	a2,a2,24584
9d009238:	3c03bf80 	lui	v1,0xbf80
9d00923c:	0b40247d 	j	9d0091f4 <_mon_putc+0x68>
9d009240:	24636010 	addiu	v1,v1,24592
9d009244:	24420000 	addiu	v0,v0,0
9d009248:	1040ffe3 	beqz	v0,9d0091d8 <_mon_putc+0x4c>
9d00924c:	3c05bf80 	lui	a1,0xbf80
9d009250:	0c000000 	jal	90000000 <_bmxdkpba_address+0x8ffe0000>
9d009254:	00000000 	nop
9d009258:	0b402470 	j	9d0091c0 <_mon_putc+0x34>
9d00925c:	8fbf0014 	lw	ra,20(sp)

Disassembly of section .text.fptodp:

9d009260 <__extendsfdf2>:
9d009260:	00043dc2 30e700ff 3c018000 00813024     .=.....0...<$0..
9d009270:	24e9ffff 2d2100fe 1020000d 00000000     ...$..!-.. .....

9d009280 <Glab1>:
9d009280:	24e70380 	addiu	a3,a3,896
9d009284:	00044a40 	sll	t1,a0,0x9
9d009288:	00094b02 	srl	t1,t1,0xc
9d00928c:	00c93025 	or	a2,a2,t1
9d009290:	00042f40 	sll	a1,a0,0x1d

9d009294 <Gret>:
9d009294:	00074d00 	sll	t1,a3,0x14
9d009298:	00c93025 	or	a2,a2,t1
9d00929c:	00051025 	or	v0,zero,a1
9d0092a0:	00061825 	or	v1,zero,a2

9d0092a4 <G999>:
9d0092a4:	03e00008 	jr	ra
9d0092a8:	00000000 	nop
9d0092ac:	00000000 	nop

9d0092b0 <Gspec>:
9d0092b0:	24050000 	li	a1,0
9d0092b4:	00842021 	addu	a0,a0,a0
9d0092b8:	1080fff6 	beqz	a0,9d009294 <Gret>
9d0092bc:	00000000 	nop
9d0092c0:	14e00009 	bnez	a3,9d0092e8 <i42>
9d0092c4:	00000000 	nop

9d0092c8 <b43>:
9d0092c8:	24e7ffff 	addiu	a3,a3,-1
9d0092cc:	00842021 	addu	a0,a0,a0
9d0092d0:	3c010080 	lui	at,0x80
9d0092d4:	0081082b 	sltu	at,a0,at
9d0092d8:	1420fffb 	bnez	at,9d0092c8 <b43>
9d0092dc:	00000000 	nop
9d0092e0:	1000ffe7 	b	9d009280 <Glab1>
9d0092e4:	00000000 	nop

9d0092e8 <i42>:
9d0092e8:	240707ff 	li	a3,2047
9d0092ec:	3c01ff00 	lui	at,0xff00
9d0092f0:	34210001 	ori	at,at,0x1
9d0092f4:	0081082b 	sltu	at,a0,at
9d0092f8:	1420ffe6 	bnez	at,9d009294 <Gret>
9d0092fc:	00000000 	nop
9d009300:	1000ffe4 	b	9d009294 <Gret>
9d009304:	3c06fff8 	lui	a2,0xfff8
9d009308:	00000000 	nop

Disassembly of section .text.range:

9d00930c <range>:
9d00930c:	27bdffe0 	addiu	sp,sp,-32
9d009310:	afbf001c 	sw	ra,28(sp)
9d009314:	afb00018 	sw	s0,24(sp)
9d009318:	3c109d01 	lui	s0,0x9d01
9d00931c:	26108cc9 	addiu	s0,s0,-29495
9d009320:	00901821 	addu	v1,a0,s0
9d009324:	90630000 	lbu	v1,0(v1)
9d009328:	30670004 	andi	a3,v1,0x4
9d00932c:	10e0000a 	beqz	a3,9d009358 <range+0x4c>
9d009330:	00801021 	move	v0,a0
9d009334:	2482ffd0 	addiu	v0,a0,-48
9d009338:	0045282a 	slt	a1,v0,a1
9d00933c:	14a00013 	bnez	a1,9d00938c <range+0x80>
9d009340:	304200ff 	andi	v0,v0,0xff
9d009344:	240200ff 	li	v0,255
9d009348:	8fbf001c 	lw	ra,28(sp)
9d00934c:	8fb00018 	lw	s0,24(sp)
9d009350:	03e00008 	jr	ra
9d009354:	27bd0020 	addiu	sp,sp,32
9d009358:	30670001 	andi	a3,v1,0x1
9d00935c:	50e00004 	beqzl	a3,9d009370 <range+0x64>
9d009360:	30630003 	andi	v1,v1,0x3
9d009364:	14c0000d 	bnez	a2,9d00939c <range+0x90>
9d009368:	00000000 	nop
9d00936c:	30630003 	andi	v1,v1,0x3
9d009370:	5060fff5 	beqzl	v1,9d009348 <range+0x3c>
9d009374:	240200ff 	li	v0,255
9d009378:	2442ffa9 	addiu	v0,v0,-87
9d00937c:	0045282a 	slt	a1,v0,a1
9d009380:	50a0fff1 	beqzl	a1,9d009348 <range+0x3c>
9d009384:	240200ff 	li	v0,255
9d009388:	304200ff 	andi	v0,v0,0xff
9d00938c:	8fbf001c 	lw	ra,28(sp)
9d009390:	8fb00018 	lw	s0,24(sp)
9d009394:	03e00008 	jr	ra
9d009398:	27bd0020 	addiu	sp,sp,32
9d00939c:	0f402763 	jal	9d009d8c <.LFE0>
9d0093a0:	afa50010 	sw	a1,16(sp)
9d0093a4:	00508021 	addu	s0,v0,s0
9d0093a8:	92030000 	lbu	v1,0(s0)
9d0093ac:	0b4024db 	j	9d00936c <range+0x60>
9d0093b0:	8fa50010 	lw	a1,16(sp)

Disassembly of section .text.atoi:

9d0093b4 <atoi>:
9d0093b4:	24030020 	li	v1,32
9d0093b8:	24050009 	li	a1,9
9d0093bc:	80820000 	lb	v0,0(a0)
9d0093c0:	5043fffe 	beql	v0,v1,9d0093bc <atoi+0x8>
9d0093c4:	24840001 	addiu	a0,a0,1
9d0093c8:	54450003 	bnel	v0,a1,9d0093d8 <atoi+0x24>
9d0093cc:	2403002d 	li	v1,45
9d0093d0:	0b4024ef 	j	9d0093bc <atoi+0x8>
9d0093d4:	24840001 	addiu	a0,a0,1
9d0093d8:	10430019 	beq	v0,v1,9d009440 <atoi+0x8c>
9d0093dc:	00802821 	move	a1,a0
9d0093e0:	2403002b 	li	v1,43
9d0093e4:	1043001a 	beq	v0,v1,9d009450 <atoi+0x9c>
9d0093e8:	00004821 	move	t1,zero
9d0093ec:	3c089d01 	lui	t0,0x9d01
9d0093f0:	25088cc9 	addiu	t0,t0,-29495
9d0093f4:	01021821 	addu	v1,t0,v0
9d0093f8:	90630000 	lbu	v1,0(v1)
9d0093fc:	30630004 	andi	v1,v1,0x4
9d009400:	1060000c 	beqz	v1,9d009434 <atoi+0x80>
9d009404:	00001821 	move	v1,zero
9d009408:	24840001 	addiu	a0,a0,1
9d00940c:	2446ffd0 	addiu	a2,v0,-48
9d009410:	80820000 	lb	v0,0(a0)
9d009414:	00033840 	sll	a3,v1,0x1
9d009418:	000318c0 	sll	v1,v1,0x3
9d00941c:	01022821 	addu	a1,t0,v0
9d009420:	90a50000 	lbu	a1,0(a1)
9d009424:	00e31821 	addu	v1,a3,v1
9d009428:	30a50004 	andi	a1,a1,0x4
9d00942c:	14a0fff6 	bnez	a1,9d009408 <atoi+0x54>
9d009430:	00661821 	addu	v1,v1,a2
9d009434:	00031023 	negu	v0,v1
9d009438:	03e00008 	jr	ra
9d00943c:	0069100a 	movz	v0,v1,t1
9d009440:	24840001 	addiu	a0,a0,1
9d009444:	80a20001 	lb	v0,1(a1)
9d009448:	0b4024fb 	j	9d0093ec <atoi+0x38>
9d00944c:	24090001 	li	t1,1
9d009450:	24840001 	addiu	a0,a0,1
9d009454:	0b4024fb 	j	9d0093ec <atoi+0x38>
9d009458:	80a20001 	lb	v0,1(a1)

Disassembly of section .text.fflush:

9d00945c <fflush>:
9d00945c:	27bdffe8 	addiu	sp,sp,-24
9d009460:	afbf0014 	sw	ra,20(sp)
9d009464:	afb00010 	sw	s0,16(sp)
9d009468:	00808021 	move	s0,a0
9d00946c:	9482000c 	lhu	v0,12(a0)
9d009470:	30440201 	andi	a0,v0,0x201
9d009474:	24030001 	li	v1,1
9d009478:	10830017 	beq	a0,v1,9d0094d8 <fflush+0x7c>
9d00947c:	30440202 	andi	a0,v0,0x202
9d009480:	24030202 	li	v1,514
9d009484:	10830005 	beq	a0,v1,9d00949c <fflush+0x40>
9d009488:	00001021 	move	v0,zero
9d00948c:	8fbf0014 	lw	ra,20(sp)
9d009490:	8fb00010 	lw	s0,16(sp)
9d009494:	03e00008 	jr	ra
9d009498:	27bd0018 	addiu	sp,sp,24
9d00949c:	8e050008 	lw	a1,8(s0)
9d0094a0:	10a0fffb 	beqz	a1,9d009490 <fflush+0x34>
9d0094a4:	8fbf0014 	lw	ra,20(sp)
9d0094a8:	8e020004 	lw	v0,4(s0)
9d0094ac:	5040fff9 	beqzl	v0,9d009494 <fflush+0x38>
9d0094b0:	8fb00010 	lw	s0,16(sp)
9d0094b4:	9604000e 	lhu	a0,14(s0)
9d0094b8:	0f402566 	jal	9d009598 <write>
9d0094bc:	00403021 	move	a2,v0
9d0094c0:	8e030004 	lw	v1,4(s0)
9d0094c4:	10430004 	beq	v0,v1,9d0094d8 <fflush+0x7c>
9d0094c8:	9602000c 	lhu	v0,12(s0)
9d0094cc:	34420030 	ori	v0,v0,0x30
9d0094d0:	3042ffff 	andi	v0,v0,0xffff
9d0094d4:	a602000c 	sh	v0,12(s0)
9d0094d8:	8e030008 	lw	v1,8(s0)
9d0094dc:	7c420140 	ext	v0,v0,0x5,0x1
9d0094e0:	ae000004 	sw	zero,4(s0)
9d0094e4:	ae030000 	sw	v1,0(s0)
9d0094e8:	00021023 	negu	v0,v0
9d0094ec:	8fbf0014 	lw	ra,20(sp)
9d0094f0:	8fb00010 	lw	s0,16(sp)
9d0094f4:	03e00008 	jr	ra
9d0094f8:	27bd0018 	addiu	sp,sp,24

Disassembly of section .text.fpcmp:

9d0094fc <__eqsf2>:
9d0094fc:	2408fffe 00043040 00053840 00c74825     ...$@0..@8..%H..
9d00950c:	1120001b 00000000 3c01ff00 34210001     .. ........<..!4
9d00951c:	00c1082b 1020001a 00000000 3c01ff00     +..... ........<
9d00952c:	34210001 00e1082b 10200015 00000000     ..!4+..... .....
9d00953c:	04810002 00063042 00063023              ....B0..#0..

9d009548 <i48>:
9d009548:	04a10002 	bgez	a1,9d009554 <i49>
9d00954c:	00073842 	srl	a3,a3,0x1
9d009550:	00073823 	negu	a3,a3

9d009554 <i49>:
9d009554:	00c7082a 	slt	at,a2,a3
9d009558:	10200003 	beqz	at,9d009568 <i50>
9d00955c:	00000000 	nop
9d009560:	10000007 	b	9d009580 <J999>
9d009564:	2402ffff 	li	v0,-1

9d009568 <i50>:
9d009568:	00e6082a 	slt	at,a3,a2
9d00956c:	10200003 	beqz	at,9d00957c <Jequ>
9d009570:	00000000 	nop
9d009574:	10000002 	b	9d009580 <J999>
9d009578:	24020001 	li	v0,1

9d00957c <Jequ>:
9d00957c:	24020000 	li	v0,0

9d009580 <J999>:
9d009580:	03e00008 	jr	ra
9d009584:	00000000 	nop
9d009588:	00000000 	nop

9d00958c <Jnan>:
9d00958c:	1000fffc 	b	9d009580 <J999>
9d009590:	00081025 	or	v0,zero,t0
9d009594:	00000000 	nop

Disassembly of section .text.write:

9d009598 <write>:
9d009598:	10a00018 	beqz	a1,9d0095fc <write+0x64>
9d00959c:	00001021 	move	v0,zero
9d0095a0:	10c00012 	beqz	a2,9d0095ec <write+0x54>
9d0095a4:	2c840003 	sltiu	a0,a0,3
9d0095a8:	10800012 	beqz	a0,9d0095f4 <write+0x5c>
9d0095ac:	00000000 	nop
9d0095b0:	27bdffe0 	addiu	sp,sp,-32
9d0095b4:	afbf001c 	sw	ra,28(sp)
9d0095b8:	3c020000 	lui	v0,0x0
9d0095bc:	24420000 	addiu	v0,v0,0
9d0095c0:	10400010 	beqz	v0,9d009604 <write+0x6c>
9d0095c4:	afb00018 	sw	s0,24(sp)
9d0095c8:	00a02021 	move	a0,a1
9d0095cc:	00c02821 	move	a1,a2
9d0095d0:	0c000000 	jal	90000000 <_bmxdkpba_address+0x8ffe0000>
9d0095d4:	afa60014 	sw	a2,20(sp)
9d0095d8:	8fa60014 	lw	a2,20(sp)
9d0095dc:	00c01021 	move	v0,a2
9d0095e0:	8fbf001c 	lw	ra,28(sp)
9d0095e4:	8fb00018 	lw	s0,24(sp)
9d0095e8:	27bd0020 	addiu	sp,sp,32
9d0095ec:	03e00008 	jr	ra
9d0095f0:	00000000 	nop
9d0095f4:	03e00008 	jr	ra
9d0095f8:	00c01021 	move	v0,a2
9d0095fc:	03e00008 	jr	ra
9d009600:	00000000 	nop
9d009604:	00c08021 	move	s0,a2
9d009608:	80a40000 	lb	a0,0(a1)
9d00960c:	2610ffff 	addiu	s0,s0,-1
9d009610:	24a50001 	addiu	a1,a1,1
9d009614:	afa50010 	sw	a1,16(sp)
9d009618:	0f402463 	jal	9d00918c <_mon_putc>
9d00961c:	afa60014 	sw	a2,20(sp)
9d009620:	8fa50010 	lw	a1,16(sp)
9d009624:	1600fff8 	bnez	s0,9d009608 <write+0x70>
9d009628:	8fa60014 	lw	a2,20(sp)
9d00962c:	0b402578 	j	9d0095e0 <write+0x48>
9d009630:	00c01021 	move	v0,a2

Disassembly of section .text.libm:

9d009634 <fpfrexp>:
9d009634:	000435c2 30c600ff 24c9ffff 2d2100fe     .5.....0...$..!-
9d009644:	1020000b 00000000                       .. .....

9d00964c <Blab1>:
9d00964c:	24c6ff82 	addiu	a2,a2,-126
9d009650:	3c01807f 	lui	at,0x807f
9d009654:	3421ffff 	ori	at,at,0xffff
9d009658:	00812024 	and	a0,a0,at
9d00965c:	3c013f00 	lui	at,0x3f00
9d009660:	00812025 	or	a0,a0,at

9d009664 <Bret>:
9d009664:	aca60000 	sw	a2,0(a1)
9d009668:	00041025 	or	v0,zero,a0

9d00966c <B999>:
9d00966c:	03e00008 	jr	ra
9d009670:	00000000 	nop

9d009674 <Bspec>:
9d009674:	14c0000d 	bnez	a2,9d0096ac <i8>
9d009678:	00000000 	nop
9d00967c:	00844821 	addu	t1,a0,a0
9d009680:	1120fff8 	beqz	t1,9d009664 <Bret>
9d009684:	00000000 	nop
9d009688:	00043a40 	sll	a3,a0,0x9
9d00968c:	70e84020 	clz	t0,a3
9d009690:	00c83023 	subu	a2,a2,t0
9d009694:	01073804 	sllv	a3,a3,t0
9d009698:	3c018000 	lui	at,0x8000
9d00969c:	00812024 	and	a0,a0,at
9d0096a0:	00074a02 	srl	t1,a3,0x8
9d0096a4:	1000ffe9 	b	9d00964c <Blab1>
9d0096a8:	00892025 	or	a0,a0,t1

9d0096ac <i8>:
9d0096ac:	3c04ffc0 	lui	a0,0xffc0
9d0096b0:	1000ffec 	b	9d009664 <Bret>
9d0096b4:	24060000 	li	a2,0
9d0096b8:	00000000 	nop

Disassembly of section .text.fptoli:

9d0096bc <__fixsfsi>:
9d0096bc:	00042a00 3c018000 00a12825 00043dc2     .*.....<%(...=..
9d0096cc:	30e700ff 2406009e 00c73023 18c0000d     ...0...$#0......
9d0096dc:	00000000 28c10020 14200003 00000000     .... ..(.. .....
9d0096ec:	10000005 24020000                       .......$

9d0096f4 <i42>:
9d0096f4:	04810002 	bgez	a0,9d009700 <i43>
9d0096f8:	00c52806 	srlv	a1,a1,a2
9d0096fc:	00052823 	negu	a1,a1

9d009700 <i43>:
9d009700:	00051025 	or	v0,zero,a1

9d009704 <G999>:
9d009704:	03e00008 	jr	ra
9d009708:	00000000 	nop
9d00970c:	00000000 	nop

9d009710 <Gspec>:
9d009710:	3c017f80 	lui	at,0x7f80
9d009714:	34210001 	ori	at,at,0x1
9d009718:	0081082b 	sltu	at,a0,at
9d00971c:	14200003 	bnez	at,9d00972c <i44>
9d009720:	00000000 	nop
9d009724:	1000fff7 	b	9d009704 <G999>
9d009728:	3c028000 	lui	v0,0x8000

9d00972c <i44>:
9d00972c:	3c027fff 	lui	v0,0x7fff
9d009730:	1000fff4 	b	9d009704 <G999>
9d009734:	3442ffff 	ori	v0,v0,0xffff
9d009738:	00000000 	nop

Disassembly of section .text.fptoul:

9d00973c <__fixunssfsi>:
9d00973c:	00042a00 3c018000 00a12825 00043dc2     .*.....<%(...=..
9d00974c:	30e700ff 2406009e 00c73023 04c0000d     ...0...$#0......
9d00975c:	00000000 28c10020 14200003 00000000     .... ..(.. .....
9d00976c:	10000005 24020000                       .......$

9d009774 <i45>:
9d009774:	04810002 	bgez	a0,9d009780 <i46>
9d009778:	00c52806 	srlv	a1,a1,a2
9d00977c:	00052823 	negu	a1,a1

9d009780 <i46>:
9d009780:	00051025 	or	v0,zero,a1

9d009784 <I999>:
9d009784:	03e00008 	jr	ra
9d009788:	00000000 	nop
9d00978c:	00000000 	nop

9d009790 <Ispec>:
9d009790:	3c017f80 	lui	at,0x7f80
9d009794:	34210001 	ori	at,at,0x1
9d009798:	0081082b 	sltu	at,a0,at
9d00979c:	14200003 	bnez	at,9d0097ac <i47>
9d0097a0:	00000000 	nop
9d0097a4:	1000fff7 	b	9d009784 <I999>
9d0097a8:	3c028000 	lui	v0,0x8000

9d0097ac <i47>:
9d0097ac:	1000fff5 	b	9d009784 <I999>
9d0097b0:	2402ffff 	li	v0,-1
9d0097b4:	00000000 	nop

Disassembly of section .text.litodp:

9d0097b8 <__floatsidf>:
9d0097b8:	24050000 00054825 00053825 00043025     ...$%H..%8..%0..
9d0097c8:	10c0000c 00000000 04c10006 00000000     ................
9d0097d8:	3c098000 0005502b 00052823 00063023     ...<+P..#(..#0..
9d0097e8:	00ca3023                                #0..

9d0097ec <i40>:
9d0097ec:	2407041e 	li	a3,1054
9d0097f0:	70c84020 	clz	t0,a2
9d0097f4:	00e83823 	subu	a3,a3,t0
9d0097f8:	01063004 	sllv	a2,a2,t0

9d0097fc <i39>:
9d0097fc:	000542c2 	srl	t0,a1,0xb
9d009800:	00065540 	sll	t2,a2,0x15
9d009804:	010a4025 	or	t0,t0,t2
9d009808:	00065040 	sll	t2,a2,0x1
9d00980c:	000a5302 	srl	t2,t2,0xc
9d009810:	012a4825 	or	t1,t1,t2
9d009814:	00075500 	sll	t2,a3,0x14
9d009818:	012a4825 	or	t1,t1,t2
9d00981c:	00081025 	or	v0,zero,t0
9d009820:	00091825 	or	v1,zero,t1

9d009824 <E999>:
9d009824:	03e00008 	jr	ra
9d009828:	00000000 	nop
9d00982c:	00000000 	nop

Disassembly of section .text.ungetc:

9d009830 <ungetc>:
9d009830:	2402ffff 	li	v0,-1
9d009834:	10820017 	beq	a0,v0,9d009894 <ungetc+0x64>
9d009838:	24030001 	li	v1,1
9d00983c:	94a2000c 	lhu	v0,12(a1)
9d009840:	30460201 	andi	a2,v0,0x201
9d009844:	54c30013 	bnel	a2,v1,9d009894 <ungetc+0x64>
9d009848:	2402ffff 	li	v0,-1
9d00984c:	8ca60008 	lw	a2,8(a1)
9d009850:	50c00010 	beqzl	a2,9d009894 <ungetc+0x64>
9d009854:	2402ffff 	li	v0,-1
9d009858:	8ca70004 	lw	a3,4(a1)
9d00985c:	8ca30010 	lw	v1,16(a1)
9d009860:	50e3000c 	beql	a3,v1,9d009894 <ungetc+0x64>
9d009864:	2402ffff 	li	v0,-1
9d009868:	8ca30000 	lw	v1,0(a1)
9d00986c:	10c3000b 	beq	a2,v1,9d00989c <ungetc+0x6c>
9d009870:	24e70001 	addiu	a3,a3,1
9d009874:	aca70004 	sw	a3,4(a1)
9d009878:	2467ffff 	addiu	a3,v1,-1
9d00987c:	30460040 	andi	a2,v0,0x40
9d009880:	aca70000 	sw	a3,0(a1)
9d009884:	14c00003 	bnez	a2,9d009894 <ungetc+0x64>
9d009888:	00801021 	move	v0,a0
9d00988c:	03e00008 	jr	ra
9d009890:	a064ffff 	sb	a0,-1(v1)
9d009894:	03e00008 	jr	ra
9d009898:	00000000 	nop
9d00989c:	0b40261e 	j	9d009878 <ungetc+0x48>
9d0098a0:	24630001 	addiu	v1,v1,1

Disassembly of section .text._sprintf_cdfFnopuxX:

9d0098a4 <_sprintf_cdfFnopuxX>:
9d0098a4:	27bdffd0 	addiu	sp,sp,-48
9d0098a8:	afbf002c 	sw	ra,44(sp)
9d0098ac:	afb00028 	sw	s0,40(sp)
9d0098b0:	27a20038 	addiu	v0,sp,56
9d0098b4:	00808021 	move	s0,a0
9d0098b8:	afa60038 	sw	a2,56(sp)
9d0098bc:	27a40010 	addiu	a0,sp,16
9d0098c0:	00403021 	move	a2,v0
9d0098c4:	afa7003c 	sw	a3,60(sp)
9d0098c8:	afa20024 	sw	v0,36(sp)
9d0098cc:	24027fff 	li	v0,32767
9d0098d0:	afa20020 	sw	v0,32(sp)
9d0098d4:	afa00014 	sw	zero,20(sp)
9d0098d8:	afb00010 	sw	s0,16(sp)
9d0098dc:	afb00018 	sw	s0,24(sp)
9d0098e0:	240200c2 	li	v0,194
9d0098e4:	0f400c90 	jal	9d003240 <.LFE5>
9d0098e8:	a7a2001c 	sh	v0,28(sp)
9d0098ec:	8fa20010 	lw	v0,16(sp)
9d0098f0:	a0400000 	sb	zero,0(v0)
9d0098f4:	8fa20010 	lw	v0,16(sp)
9d0098f8:	00501023 	subu	v0,v0,s0
9d0098fc:	8fbf002c 	lw	ra,44(sp)
9d009900:	8fb00028 	lw	s0,40(sp)
9d009904:	03e00008 	jr	ra
9d009908:	27bd0030 	addiu	sp,sp,48

Disassembly of section .rodata:

9d00990c <_powers_f>:
9d00990c:	3f800000 41200000 42c80000 447a0000     ...?.. A...B..zD
9d00991c:	461c4000 47c35000 49742400 4b189680     .@.F.P.G.$tI...K
9d00992c:	4cbebc20 4e6e6b28 501502f9 60ad78ec      ..L(knN...P.x.`
9d00993c:	7149f2ca                                ..Iq

9d009940 <_npowers_f>:
9d009940:	3f800000 3dcccccd 3c23d70a 3a83126f     ...?...=..#<o..:
9d009950:	38d1b717 3727c5ac 358637bd 33d6bf95     ...8..'7.7.5...3
9d009960:	322bcc77 3089705f 2edbe6ff 1e3ce508     w.+2_p.0......<.
9d009970:	0da24260                                `B..

Disassembly of section .text.sitofp:

9d009974 <__floatsisf>:
9d009974:	3c018000 10800012 00813024 04810002     ...<....$0......
9d009984:	00000000 00042023                       ....# ..

9d00998c <i40>:
9d00998c:	2405009e 	li	a1,158
9d009990:	70873820 	clz	a3,a0
9d009994:	00a72823 	subu	a1,a1,a3
9d009998:	00e42004 	sllv	a0,a0,a3
9d00999c:	24840080 	addiu	a0,a0,128
9d0099a0:	2c880080 	sltiu	t0,a0,128
9d0099a4:	00a82821 	addu	a1,a1,t0
9d0099a8:	00044203 	sra	t0,a0,0x8
9d0099ac:	31080001 	andi	t0,t0,0x1
9d0099b0:	00882023 	subu	a0,a0,t0
9d0099b4:	00042040 	sll	a0,a0,0x1
9d0099b8:	00042242 	srl	a0,a0,0x9
9d0099bc:	000545c0 	sll	t0,a1,0x17
9d0099c0:	00882025 	or	a0,a0,t0

9d0099c4 <i39>:
9d0099c4:	00861025 	or	v0,a0,a2

9d0099c8 <E999>:
9d0099c8:	03e00008 	jr	ra
9d0099cc:	00000000 	nop
9d0099d0:	00000000 	nop

Disassembly of section .text.wspace:

9d0099d4 <wspace>:
9d0099d4:	27bdffe0 	addiu	sp,sp,-32
9d0099d8:	afbf001c 	sw	ra,28(sp)
9d0099dc:	afb10018 	sw	s1,24(sp)
9d0099e0:	afb00014 	sw	s0,20(sp)
9d0099e4:	3c11a000 	lui	s1,0xa000
9d0099e8:	3c109d01 	lui	s0,0x9d01
9d0099ec:	26108cc9 	addiu	s0,s0,-29495
9d0099f0:	0f4022f1 	jal	9d008bc4 <fgetc>
9d0099f4:	8e2424f8 	lw	a0,9464(s1)
9d0099f8:	02021821 	addu	v1,s0,v0
9d0099fc:	80630000 	lb	v1,0(v1)
9d009a00:	30630088 	andi	v1,v1,0x88
9d009a04:	1460fffa 	bnez	v1,9d0099f0 <wspace+0x1c>
9d009a08:	2403ffff 	li	v1,-1
9d009a0c:	10430004 	beq	v0,v1,9d009a20 <wspace+0x4c>
9d009a10:	3c03a000 	lui	v1,0xa000
9d009a14:	8c6524f8 	lw	a1,9464(v1)
9d009a18:	0f40260c 	jal	9d009830 <ungetc>
9d009a1c:	00402021 	move	a0,v0
9d009a20:	8fbf001c 	lw	ra,28(sp)
9d009a24:	8fb10018 	lw	s1,24(sp)
9d009a28:	8fb00014 	lw	s0,20(sp)
9d009a2c:	03e00008 	jr	ra
9d009a30:	27bd0020 	addiu	sp,sp,32

Disassembly of section .rodata:

9d009a34 <.LC10>:
9d009a34:	0a0d6425 	j	98359094 <_bmxdkpba_address+0x98339094>
9d009a38:	00000000 	nop

9d009a3c <.LC11>:
9d009a3c:	332e3525 	andi	t6,t9,0x3525
9d009a40:	000a0d66 	0xa0d66

9d009a44 <.LC12>:
9d009a44:	0a0d6625 	j	98359894 <_bmxdkpba_address+0x98339894>
9d009a48:	00000000 	nop

9d009a4c <.LC13>:
9d009a4c:	00006425 	0x6425

9d009a50 <.LC14>:
9d009a50:	00006625 	0x6625
9d009a54:	25206425 	addiu	zero,t1,25637
9d009a58:	000a0d64 	0xa0d64
9d009a5c:	25206625 	addiu	zero,t1,26149
9d009a60:	000a0d66 	0xa0d66
9d009a64:	43b40000 	c0	0x1b40000
9d009a68:	44e00000 	mthc1	zero,$f0
9d009a6c:	3ba3d70a 	xori	v1,sp,0xd70a
9d009a70:	44160000 	mfc1	s6,$f0
9d009a74:	c4160000 	lwc1	$f22,0(zero)
9d009a78:	43fb3646 	c0	0x1fb3646
9d009a7c:	3ffe76c9 	0x3ffe76c9
9d009a80:	40c00000 	ctc0	zero,c0_index
9d009a84:	42c80000 	c0	0xc80000
9d009a88:	457a0000 	0x457a0000

Disassembly of section .text.main_entry:

9d009a8c <_main_entry>:
9d009a8c:	3c040000 	lui	a0,0x0
9d009a90:	27bdffe8 	addiu	sp,sp,-24
9d009a94:	24840000 	addiu	a0,a0,0
9d009a98:	10800003 	beqz	a0,9d009aa8 <_main_entry+0x1c>
9d009a9c:	afbf0014 	sw	ra,20(sp)
9d009aa0:	0080f809 	jalr	a0
9d009aa4:	00000000 	nop
9d009aa8:	30840000 	andi	a0,a0,0x0
9d009aac:	30a50000 	andi	a1,a1,0x0
9d009ab0:	3c089d00 	lui	t0,0x9d00
9d009ab4:	250828c0 	addiu	t0,t0,10432
9d009ab8:	0100f809 	jalr	t0
9d009abc:	00000000 	nop

9d009ac0 <__crt0_exit>:
9d009ac0:	3c020000 24420000 10400003 00000000     ...<..B$..@.....
9d009ad0:	0040f809 00000000 1000fff9 00000000     ..@.............

Disassembly of section .text._sscanf_cdfFnopuxX:

9d009ae0 <_sscanf_cdfFnopuxX>:
9d009ae0:	27bdffc8 	addiu	sp,sp,-56
9d009ae4:	afbf0034 	sw	ra,52(sp)
9d009ae8:	afa60040 	sw	a2,64(sp)
9d009aec:	afa70044 	sw	a3,68(sp)
9d009af0:	27a30040 	addiu	v1,sp,64
9d009af4:	afa30024 	sw	v1,36(sp)
9d009af8:	afa40010 	sw	a0,16(sp)
9d009afc:	afa40018 	sw	a0,24(sp)
9d009b00:	0f402085 	jal	9d008214 <.LFE0>
9d009b04:	afa50028 	sw	a1,40(sp)
9d009b08:	8fa60024 	lw	a2,36(sp)
9d009b0c:	27a40010 	addiu	a0,sp,16
9d009b10:	8fa50028 	lw	a1,40(sp)
9d009b14:	afa20014 	sw	v0,20(sp)
9d009b18:	afa20020 	sw	v0,32(sp)
9d009b1c:	240200c1 	li	v0,193
9d009b20:	0f401198 	jal	9d004660 <.LFE2>
9d009b24:	a7a2001c 	sh	v0,28(sp)
9d009b28:	8fbf0034 	lw	ra,52(sp)
9d009b2c:	03e00008 	jr	ra
9d009b30:	27bd0038 	addiu	sp,sp,56

Disassembly of section .text:

9d009b34 <__floatunsisf>:
9d009b34:	27bdffe8 	addiu	sp,sp,-24
9d009b38:	afbf0014 	sw	ra,20(sp)
9d009b3c:	04800006 	bltz	a0,9d009b58 <__floatunsisf+0x24>
9d009b40:	00801021 	move	v0,a0
9d009b44:	0f40265d 	jal	9d009974 <__floatsisf>
9d009b48:	00000000 	nop
9d009b4c:	8fbf0014 	lw	ra,20(sp)
9d009b50:	03e00008 	jr	ra
9d009b54:	27bd0018 	addiu	sp,sp,24
9d009b58:	00042042 	srl	a0,a0,0x1
9d009b5c:	30420001 	andi	v0,v0,0x1
9d009b60:	0f40265d 	jal	9d009974 <__floatsisf>
9d009b64:	00822025 	or	a0,a0,v0
9d009b68:	00402021 	move	a0,v0
9d009b6c:	0f401c38 	jal	9d0070e0 <__addsf3>
9d009b70:	00402821 	move	a1,v0
9d009b74:	8fbf0014 	lw	ra,20(sp)
9d009b78:	03e00008 	jr	ra
9d009b7c:	27bd0018 	addiu	sp,sp,24

Disassembly of section .text._bootstrap_exception_handler:

9d009b80 <_bootstrap_exception_handler>:
9d009b80:	3c020000 	lui	v0,0x0
9d009b84:	24420000 	addiu	v0,v0,0
9d009b88:	10400005 	beqz	v0,9d009ba0 <_bootstrap_exception_handler+0x20>
9d009b8c:	3c020000 	lui	v0,0x0
9d009b90:	24420000 	addiu	v0,v0,0
9d009b94:	10400003 	beqz	v0,9d009ba4 <_bootstrap_exception_handler+0x24>
9d009b98:	3c029d01 	lui	v0,0x9d01
9d009b9c:	7000003f 	sdbbp
9d009ba0:	3c029d01 	lui	v0,0x9d01
9d009ba4:	24429ca0 	addiu	v0,v0,-25440
9d009ba8:	10400005 	beqz	v0,9d009bc0 <_bootstrap_exception_handler+0x40>
9d009bac:	00000000 	nop
9d009bb0:	27bdffe8 	addiu	sp,sp,-24
9d009bb4:	afbf0014 	sw	ra,20(sp)
9d009bb8:	0040f809 	jalr	v0
9d009bbc:	00000000 	nop
9d009bc0:	0b4026f0 	j	9d009bc0 <_bootstrap_exception_handler+0x40>
9d009bc4:	00000000 	nop

Disassembly of section .text._general_exception_handler:

9d009bc8 <_general_exception_handler>:
9d009bc8:	3c020000 	lui	v0,0x0
9d009bcc:	24420000 	addiu	v0,v0,0
9d009bd0:	10400005 	beqz	v0,9d009be8 <_general_exception_handler+0x20>
9d009bd4:	3c020000 	lui	v0,0x0
9d009bd8:	24420000 	addiu	v0,v0,0
9d009bdc:	10400003 	beqz	v0,9d009bec <_general_exception_handler+0x24>
9d009be0:	3c029d01 	lui	v0,0x9d01
9d009be4:	7000003f 	sdbbp
9d009be8:	3c029d01 	lui	v0,0x9d01
9d009bec:	24429ca0 	addiu	v0,v0,-25440
9d009bf0:	10400005 	beqz	v0,9d009c08 <_general_exception_handler+0x40>
9d009bf4:	00000000 	nop
9d009bf8:	27bdffe8 	addiu	sp,sp,-24
9d009bfc:	afbf0014 	sw	ra,20(sp)
9d009c00:	0040f809 	jalr	v0
9d009c04:	00000000 	nop
9d009c08:	0b402702 	j	9d009c08 <_general_exception_handler+0x40>
9d009c0c:	00000000 	nop

Disassembly of section .vector_default:

9d009c10 <_DefaultInterrupt>:
9d009c10:	3c020000 	lui	v0,0x0
9d009c14:	24420000 	addiu	v0,v0,0
9d009c18:	10400007 	beqz	v0,9d009c38 <_DefaultInterrupt+0x28>
9d009c1c:	3c020000 	lui	v0,0x0
9d009c20:	24420000 	addiu	v0,v0,0
9d009c24:	50400005 	beqzl	v0,9d009c3c <_DefaultInterrupt+0x2c>
9d009c28:	3c029d01 	lui	v0,0x9d01
9d009c2c:	7000003f 	sdbbp
9d009c30:	03e00008 	jr	ra
9d009c34:	00000000 	nop
9d009c38:	3c029d01 	lui	v0,0x9d01
9d009c3c:	24429ca0 	addiu	v0,v0,-25440
9d009c40:	10400003 	beqz	v0,9d009c50 <_DefaultInterrupt+0x40>
9d009c44:	00000000 	nop
9d009c48:	0040f809 	jalr	v0
9d009c4c:	00000000 	nop
9d009c50:	03e00008 	jr	ra
9d009c54:	00000000 	nop

Disassembly of section .rodata:

9d009c58 <f5pow>:
9d009c58:	00000000 40140000 00000000 40390000     .......@......9@
9d009c68:	00000000 40838800 00000000 4117d784     .......@.......A
9d009c78:	37e08000 4241c379 b5056e17 4493b8b5     ...7y.AB.n.....D
9d009c88:	e93ff9f5 49384f03 f9301d32 52827748     ..?..O8I2.0.Hw.R
9d009c98:	7f73bf3c 65154fdd                       <.s..O.e

Disassembly of section .text:

9d009ca0 <__pic32_software_reset>:
9d009ca0:	41606000 	di
9d009ca4:	000000c0 	ehb
9d009ca8:	3c03aa99 	lui	v1,0xaa99
9d009cac:	3c02bf81 	lui	v0,0xbf81
9d009cb0:	24636655 	addiu	v1,v1,26197
9d009cb4:	ac40f230 	sw	zero,-3536(v0)
9d009cb8:	ac43f230 	sw	v1,-3536(v0)
9d009cbc:	3c035566 	lui	v1,0x5566
9d009cc0:	346399aa 	ori	v1,v1,0x99aa
9d009cc4:	ac43f230 	sw	v1,-3536(v0)
9d009cc8:	3c02bf81 	lui	v0,0xbf81
9d009ccc:	24030001 	li	v1,1
9d009cd0:	ac43f618 	sw	v1,-2536(v0)
9d009cd4:	3c02bf81 	lui	v0,0xbf81
9d009cd8:	8c42f610 	lw	v0,-2544(v0)
9d009cdc:	0b40272a 	j	9d009ca8 <__pic32_software_reset+0x8>
9d009ce0:	00000000 	nop

9d009ce4 <__lshrdi3>:
9d009ce4:	10c00009 	beqz	a2,9d009d0c <__lshrdi3+0x28>
9d009ce8:	00801021 	move	v0,a0
9d009cec:	24020020 	li	v0,32
9d009cf0:	00461023 	subu	v0,v0,a2
9d009cf4:	18400007 	blez	v0,9d009d14 <__lshrdi3+0x30>
9d009cf8:	00c42006 	srlv	a0,a0,a2
9d009cfc:	00451004 	sllv	v0,a1,v0
9d009d00:	00c51806 	srlv	v1,a1,a2
9d009d04:	03e00008 	jr	ra
9d009d08:	00441025 	or	v0,v0,a0
9d009d0c:	03e00008 	jr	ra
9d009d10:	00a01821 	move	v1,a1
9d009d14:	00021023 	negu	v0,v0
9d009d18:	00001821 	move	v1,zero
9d009d1c:	03e00008 	jr	ra
9d009d20:	00451006 	srlv	v0,a1,v0

9d009d24 <__ashldi3>:
9d009d24:	10c00009 	beqz	a2,9d009d4c <__ashldi3+0x28>
9d009d28:	00801021 	move	v0,a0
9d009d2c:	24030020 	li	v1,32
9d009d30:	00661823 	subu	v1,v1,a2
9d009d34:	18600007 	blez	v1,9d009d54 <__ashldi3+0x30>
9d009d38:	00c52804 	sllv	a1,a1,a2
9d009d3c:	00641806 	srlv	v1,a0,v1
9d009d40:	00c41004 	sllv	v0,a0,a2
9d009d44:	03e00008 	jr	ra
9d009d48:	00651825 	or	v1,v1,a1
9d009d4c:	03e00008 	jr	ra
9d009d50:	00a01821 	move	v1,a1
9d009d54:	00031823 	negu	v1,v1
9d009d58:	00001021 	move	v0,zero
9d009d5c:	03e00008 	jr	ra
9d009d60:	00641804 	sllv	v1,a0,v1

Disassembly of section .text.strtod:

9d009d64 <strtod>:
9d009d64:	27bdffe8 	addiu	sp,sp,-24
9d009d68:	afbf0014 	sw	ra,20(sp)
9d009d6c:	0f4019a1 	jal	9d006684 <__strtod>
9d009d70:	00000000 	nop
9d009d74:	00402021 	move	a0,v0
9d009d78:	0f4023b4 	jal	9d008ed0 <.LFE23>
9d009d7c:	00602821 	move	a1,v1
9d009d80:	8fbf0014 	lw	ra,20(sp)
9d009d84:	03e00008 	jr	ra
9d009d88:	27bd0018 	addiu	sp,sp,24

Disassembly of section .text.tolower:

9d009d8c <tolower>:
9d009d8c:	3c029d01 	lui	v0,0x9d01
9d009d90:	24428cc9 	addiu	v0,v0,-29495
9d009d94:	00821021 	addu	v0,a0,v0
9d009d98:	90420000 	lbu	v0,0(v0)
9d009d9c:	24830020 	addiu	v1,a0,32
9d009da0:	30420001 	andi	v0,v0,0x1
9d009da4:	0062200b 	movn	a0,v1,v0
9d009da8:	03e00008 	jr	ra
9d009dac:	00801021 	move	v0,a0

Disassembly of section .text.toupper:

9d009db0 <toupper>:
9d009db0:	3c029d01 	lui	v0,0x9d01
9d009db4:	24428cc9 	addiu	v0,v0,-29495
9d009db8:	00821021 	addu	v0,a0,v0
9d009dbc:	90420000 	lbu	v0,0(v0)
9d009dc0:	2483ffe0 	addiu	v1,a0,-32
9d009dc4:	30420002 	andi	v0,v0,0x2
9d009dc8:	0062200b 	movn	a0,v1,v0
9d009dcc:	03e00008 	jr	ra
9d009dd0:	00801021 	move	v0,a0

Disassembly of section .text._dstrtod:

9d009dd4 <_dstrtod>:
9d009dd4:	27bdffe8 	addiu	sp,sp,-24
9d009dd8:	afbf0014 	sw	ra,20(sp)
9d009ddc:	0f4019a1 	jal	9d006684 <__strtod>
9d009de0:	00000000 	nop
9d009de4:	8fbf0014 	lw	ra,20(sp)
9d009de8:	03e00008 	jr	ra
9d009dec:	27bd0018 	addiu	sp,sp,24

Disassembly of section .text.strtof:

9d009df0 <strtof>:
9d009df0:	27bdffe8 	addiu	sp,sp,-24
9d009df4:	afbf0014 	sw	ra,20(sp)
9d009df8:	0f401a95 	jal	9d006a54 <.LFE23>
9d009dfc:	00000000 	nop
9d009e00:	8fbf0014 	lw	ra,20(sp)
9d009e04:	03e00008 	jr	ra
9d009e08:	27bd0018 	addiu	sp,sp,24

Disassembly of section .text.strtodf:

9d009e0c <strtodf>:
9d009e0c:	27bdffe8 	addiu	sp,sp,-24
9d009e10:	afbf0014 	sw	ra,20(sp)
9d009e14:	0f401a95 	jal	9d006a54 <.LFE23>
9d009e18:	00000000 	nop
9d009e1c:	8fbf0014 	lw	ra,20(sp)
9d009e20:	03e00008 	jr	ra
9d009e24:	27bd0018 	addiu	sp,sp,24

Disassembly of section .text.negdf2:

9d009e28 <__negdf2>:
9d009e28:	3c018000 00a12826 00041025 00051825     ...<&(..%...%...

9d009e38 <M999>:
9d009e38:	03e00008 	jr	ra
9d009e3c:	00000000 	nop
9d009e40:	00000000 	nop

Disassembly of section .text:

9d009e44 <get_mode>:
//3 = HOLD
//4 = TRACK

int get_mode(void) {

  return mode;
9d009e44:	8f8280f4 	lw	v0,-32524(gp)
}
9d009e48:	03e00008 	jr	ra
9d009e4c:	00000000 	nop

9d009e50 <set_mode>:

void set_mode(int mnew) {

  mode = mnew;
9d009e50:	af8480f4 	sw	a0,-32524(gp)
9d009e54:	03e00008 	jr	ra
9d009e58:	00000000 	nop

9d009e5c <_nmi_handler>:
9d009e5c:	401a6000 	mfc0	k0,c0_status
9d009e60:	3c1bffbf 	lui	k1,0xffbf
9d009e64:	377bffff 	ori	k1,k1,0xffff
9d009e68:	035bd024 	and	k0,k0,k1
9d009e6c:	409a6000 	mtc0	k0,c0_status
9d009e70:	42000018 	eret

Disassembly of section .text.isalnum:

9d009e74 <isalnum>:
9d009e74:	3c029d01 	lui	v0,0x9d01
9d009e78:	24428cc9 	addiu	v0,v0,-29495
9d009e7c:	00442021 	addu	a0,v0,a0
9d009e80:	90820000 	lbu	v0,0(a0)
9d009e84:	03e00008 	jr	ra
9d009e88:	30420007 	andi	v0,v0,0x7

Disassembly of section .text.isalpha:

9d009e8c <isalpha>:
9d009e8c:	3c029d01 	lui	v0,0x9d01
9d009e90:	24428cc9 	addiu	v0,v0,-29495
9d009e94:	00442021 	addu	a0,v0,a0
9d009e98:	90820000 	lbu	v0,0(a0)
9d009e9c:	03e00008 	jr	ra
9d009ea0:	30420003 	andi	v0,v0,0x3

Disassembly of section .text.iscntrl:

9d009ea4 <iscntrl>:
9d009ea4:	3c029d01 	lui	v0,0x9d01
9d009ea8:	24428cc9 	addiu	v0,v0,-29495
9d009eac:	00442021 	addu	a0,v0,a0
9d009eb0:	90820000 	lbu	v0,0(a0)
9d009eb4:	03e00008 	jr	ra
9d009eb8:	30420020 	andi	v0,v0,0x20

Disassembly of section .text.isdigit:

9d009ebc <isdigit>:
9d009ebc:	3c029d01 	lui	v0,0x9d01
9d009ec0:	24428cc9 	addiu	v0,v0,-29495
9d009ec4:	00442021 	addu	a0,v0,a0
9d009ec8:	90820000 	lbu	v0,0(a0)
9d009ecc:	03e00008 	jr	ra
9d009ed0:	30420004 	andi	v0,v0,0x4

Disassembly of section .text.isgraph:

9d009ed4 <isgraph>:
9d009ed4:	3c029d01 	lui	v0,0x9d01
9d009ed8:	24428cc9 	addiu	v0,v0,-29495
9d009edc:	00442021 	addu	a0,v0,a0
9d009ee0:	90820000 	lbu	v0,0(a0)
9d009ee4:	03e00008 	jr	ra
9d009ee8:	30420017 	andi	v0,v0,0x17

Disassembly of section .text.islower:

9d009eec <islower>:
9d009eec:	3c029d01 	lui	v0,0x9d01
9d009ef0:	24428cc9 	addiu	v0,v0,-29495
9d009ef4:	00442021 	addu	a0,v0,a0
9d009ef8:	90820000 	lbu	v0,0(a0)
9d009efc:	03e00008 	jr	ra
9d009f00:	30420002 	andi	v0,v0,0x2

Disassembly of section .text.isprint:

9d009f04 <isprint>:
9d009f04:	3c029d01 	lui	v0,0x9d01
9d009f08:	24428cc9 	addiu	v0,v0,-29495
9d009f0c:	00442021 	addu	a0,v0,a0
9d009f10:	80820000 	lb	v0,0(a0)
9d009f14:	03e00008 	jr	ra
9d009f18:	30420097 	andi	v0,v0,0x97

Disassembly of section .text.ispunct:

9d009f1c <ispunct>:
9d009f1c:	3c029d01 	lui	v0,0x9d01
9d009f20:	24428cc9 	addiu	v0,v0,-29495
9d009f24:	00442021 	addu	a0,v0,a0
9d009f28:	90820000 	lbu	v0,0(a0)
9d009f2c:	03e00008 	jr	ra
9d009f30:	30420010 	andi	v0,v0,0x10

Disassembly of section .text.isspace:

9d009f34 <isspace>:
9d009f34:	3c029d01 	lui	v0,0x9d01
9d009f38:	24428cc9 	addiu	v0,v0,-29495
9d009f3c:	00442021 	addu	a0,v0,a0
9d009f40:	80820000 	lb	v0,0(a0)
9d009f44:	03e00008 	jr	ra
9d009f48:	30420088 	andi	v0,v0,0x88

Disassembly of section .text.isupper:

9d009f4c <isupper>:
9d009f4c:	3c029d01 	lui	v0,0x9d01
9d009f50:	24428cc9 	addiu	v0,v0,-29495
9d009f54:	00442021 	addu	a0,v0,a0
9d009f58:	90820000 	lbu	v0,0(a0)
9d009f5c:	03e00008 	jr	ra
9d009f60:	30420001 	andi	v0,v0,0x1

Disassembly of section .text.isxdigit:

9d009f64 <isxdigit>:
9d009f64:	3c029d01 	lui	v0,0x9d01
9d009f68:	24428cc9 	addiu	v0,v0,-29495
9d009f6c:	00442021 	addu	a0,v0,a0
9d009f70:	90820000 	lbu	v0,0(a0)
9d009f74:	03e00008 	jr	ra
9d009f78:	30420044 	andi	v0,v0,0x44

Disassembly of section .rodata:

9d009f7c <f5pow>:
9d009f7c:	40a00000 41c80000 441c4000 48bebc20     ...@...A.@.D ..H
9d009f8c:	520e1bca 649dc5ae                       ...R...d

Disassembly of section .text.negsf2:

9d009f94 <__negsf2>:
9d009f94:	3c018000 00811026                       ...<&...

9d009f9c <L999>:
9d009f9c:	03e00008 	jr	ra
9d009fa0:	00000000 	nop
9d009fa4:	00000000 	nop

Disassembly of section .text._on_reset:

9d009fa8 <_on_reset>:
9d009fa8:	03e00008 	jr	ra
9d009fac:	00000000 	nop

Disassembly of section .text._on_bootstrap:

9d009fb0 <_on_bootstrap>:
9d009fb0:	03e00008 	jr	ra
9d009fb4:	00000000 	nop

Disassembly of section .text.isascii:

9d009fb8 <isascii>:
9d009fb8:	03e00008 	jr	ra
9d009fbc:	2c820080 	sltiu	v0,a0,128

Disassembly of section .text.toascii:

9d009fc0 <toascii>:
9d009fc0:	03e00008 	jr	ra
9d009fc4:	3082007f 	andi	v0,a0,0x7f

Disassembly of section .text._tolower:

9d009fc8 <_tolower>:
9d009fc8:	03e00008 	jr	ra
9d009fcc:	24820020 	addiu	v0,a0,32

Disassembly of section .text._toupper:

9d009fd0 <_toupper>:
9d009fd0:	03e00008 	jr	ra
9d009fd4:	2482ffe0 	addiu	v0,a0,-32
